ARM GAS  /tmp/cc98KGWN.s 			page 1


   1              		.cpu cortex-m4
   2              		.eabi_attribute 27, 1
   3              		.eabi_attribute 28, 1
   4              		.eabi_attribute 20, 1
   5              		.eabi_attribute 21, 1
   6              		.eabi_attribute 23, 3
   7              		.eabi_attribute 24, 1
   8              		.eabi_attribute 25, 1
   9              		.eabi_attribute 26, 1
  10              		.eabi_attribute 30, 1
  11              		.eabi_attribute 34, 1
  12              		.eabi_attribute 18, 4
  13              		.file	"stm32g4xx_ll_usb.c"
  14              		.text
  15              	.Ltext0:
  16              		.cfi_sections	.debug_frame
  17              		.section	.text.USB_CoreInit,"ax",%progbits
  18              		.align	1
  19              		.global	USB_CoreInit
  20              		.arch armv7e-m
  21              		.syntax unified
  22              		.thumb
  23              		.thumb_func
  24              		.fpu fpv4-sp-d16
  26              	USB_CoreInit:
  27              	.LVL0:
  28              	.LFB329:
  29              		.file 1 "Drivers/STM32G4xx_HAL_Driver/Src/stm32g4xx_ll_usb.c"
   1:Drivers/STM32G4xx_HAL_Driver/Src/stm32g4xx_ll_usb.c **** /**
   2:Drivers/STM32G4xx_HAL_Driver/Src/stm32g4xx_ll_usb.c ****   ******************************************************************************
   3:Drivers/STM32G4xx_HAL_Driver/Src/stm32g4xx_ll_usb.c ****   * @file    stm32g4xx_ll_usb.c
   4:Drivers/STM32G4xx_HAL_Driver/Src/stm32g4xx_ll_usb.c ****   * @author  MCD Application Team
   5:Drivers/STM32G4xx_HAL_Driver/Src/stm32g4xx_ll_usb.c ****   * @brief   USB Low Layer HAL module driver.
   6:Drivers/STM32G4xx_HAL_Driver/Src/stm32g4xx_ll_usb.c ****   *
   7:Drivers/STM32G4xx_HAL_Driver/Src/stm32g4xx_ll_usb.c ****   *          This file provides firmware functions to manage the following
   8:Drivers/STM32G4xx_HAL_Driver/Src/stm32g4xx_ll_usb.c ****   *          functionalities of the USB Peripheral Controller:
   9:Drivers/STM32G4xx_HAL_Driver/Src/stm32g4xx_ll_usb.c ****   *           + Initialization/de-initialization functions
  10:Drivers/STM32G4xx_HAL_Driver/Src/stm32g4xx_ll_usb.c ****   *           + I/O operation functions
  11:Drivers/STM32G4xx_HAL_Driver/Src/stm32g4xx_ll_usb.c ****   *           + Peripheral Control functions
  12:Drivers/STM32G4xx_HAL_Driver/Src/stm32g4xx_ll_usb.c ****   *           + Peripheral State functions
  13:Drivers/STM32G4xx_HAL_Driver/Src/stm32g4xx_ll_usb.c ****   *
  14:Drivers/STM32G4xx_HAL_Driver/Src/stm32g4xx_ll_usb.c ****   ******************************************************************************
  15:Drivers/STM32G4xx_HAL_Driver/Src/stm32g4xx_ll_usb.c ****   * @attention
  16:Drivers/STM32G4xx_HAL_Driver/Src/stm32g4xx_ll_usb.c ****   *
  17:Drivers/STM32G4xx_HAL_Driver/Src/stm32g4xx_ll_usb.c ****   * Copyright (c) 2019 STMicroelectronics.
  18:Drivers/STM32G4xx_HAL_Driver/Src/stm32g4xx_ll_usb.c ****   * All rights reserved.
  19:Drivers/STM32G4xx_HAL_Driver/Src/stm32g4xx_ll_usb.c ****   *
  20:Drivers/STM32G4xx_HAL_Driver/Src/stm32g4xx_ll_usb.c ****   * This software is licensed under terms that can be found in the LICENSE file
  21:Drivers/STM32G4xx_HAL_Driver/Src/stm32g4xx_ll_usb.c ****   * in the root directory of this software component.
  22:Drivers/STM32G4xx_HAL_Driver/Src/stm32g4xx_ll_usb.c ****   * If no LICENSE file comes with this software, it is provided AS-IS.
  23:Drivers/STM32G4xx_HAL_Driver/Src/stm32g4xx_ll_usb.c ****   *
  24:Drivers/STM32G4xx_HAL_Driver/Src/stm32g4xx_ll_usb.c ****   ******************************************************************************
  25:Drivers/STM32G4xx_HAL_Driver/Src/stm32g4xx_ll_usb.c ****   @verbatim
  26:Drivers/STM32G4xx_HAL_Driver/Src/stm32g4xx_ll_usb.c ****   ==============================================================================
  27:Drivers/STM32G4xx_HAL_Driver/Src/stm32g4xx_ll_usb.c ****                     ##### How to use this driver #####
  28:Drivers/STM32G4xx_HAL_Driver/Src/stm32g4xx_ll_usb.c ****   ==============================================================================
  29:Drivers/STM32G4xx_HAL_Driver/Src/stm32g4xx_ll_usb.c ****     [..]
ARM GAS  /tmp/cc98KGWN.s 			page 2


  30:Drivers/STM32G4xx_HAL_Driver/Src/stm32g4xx_ll_usb.c ****       (#) Fill parameters of Init structure in USB_CfgTypeDef structure.
  31:Drivers/STM32G4xx_HAL_Driver/Src/stm32g4xx_ll_usb.c **** 
  32:Drivers/STM32G4xx_HAL_Driver/Src/stm32g4xx_ll_usb.c ****       (#) Call USB_CoreInit() API to initialize the USB Core peripheral.
  33:Drivers/STM32G4xx_HAL_Driver/Src/stm32g4xx_ll_usb.c **** 
  34:Drivers/STM32G4xx_HAL_Driver/Src/stm32g4xx_ll_usb.c ****       (#) The upper HAL HCD/PCD driver will call the right routines for its internal processes.
  35:Drivers/STM32G4xx_HAL_Driver/Src/stm32g4xx_ll_usb.c **** 
  36:Drivers/STM32G4xx_HAL_Driver/Src/stm32g4xx_ll_usb.c ****       (#)NOTE: For applications not using double buffer mode, define the symbol
  37:Drivers/STM32G4xx_HAL_Driver/Src/stm32g4xx_ll_usb.c ****                 'USE_USB_DOUBLE_BUFFER' as 0 to reduce the driver's memory footprint.
  38:Drivers/STM32G4xx_HAL_Driver/Src/stm32g4xx_ll_usb.c **** 
  39:Drivers/STM32G4xx_HAL_Driver/Src/stm32g4xx_ll_usb.c ****   @endverbatim
  40:Drivers/STM32G4xx_HAL_Driver/Src/stm32g4xx_ll_usb.c **** 
  41:Drivers/STM32G4xx_HAL_Driver/Src/stm32g4xx_ll_usb.c ****   ******************************************************************************
  42:Drivers/STM32G4xx_HAL_Driver/Src/stm32g4xx_ll_usb.c ****   */
  43:Drivers/STM32G4xx_HAL_Driver/Src/stm32g4xx_ll_usb.c **** 
  44:Drivers/STM32G4xx_HAL_Driver/Src/stm32g4xx_ll_usb.c **** /* Includes ------------------------------------------------------------------*/
  45:Drivers/STM32G4xx_HAL_Driver/Src/stm32g4xx_ll_usb.c **** #include "stm32g4xx_hal.h"
  46:Drivers/STM32G4xx_HAL_Driver/Src/stm32g4xx_ll_usb.c **** 
  47:Drivers/STM32G4xx_HAL_Driver/Src/stm32g4xx_ll_usb.c **** /** @addtogroup STM32G4xx_LL_USB_DRIVER
  48:Drivers/STM32G4xx_HAL_Driver/Src/stm32g4xx_ll_usb.c ****   * @{
  49:Drivers/STM32G4xx_HAL_Driver/Src/stm32g4xx_ll_usb.c ****   */
  50:Drivers/STM32G4xx_HAL_Driver/Src/stm32g4xx_ll_usb.c **** 
  51:Drivers/STM32G4xx_HAL_Driver/Src/stm32g4xx_ll_usb.c **** #if defined (HAL_PCD_MODULE_ENABLED) || defined (HAL_HCD_MODULE_ENABLED)
  52:Drivers/STM32G4xx_HAL_Driver/Src/stm32g4xx_ll_usb.c **** #if defined (USB)
  53:Drivers/STM32G4xx_HAL_Driver/Src/stm32g4xx_ll_usb.c **** /* Private typedef -----------------------------------------------------------*/
  54:Drivers/STM32G4xx_HAL_Driver/Src/stm32g4xx_ll_usb.c **** /* Private define ------------------------------------------------------------*/
  55:Drivers/STM32G4xx_HAL_Driver/Src/stm32g4xx_ll_usb.c **** /* Private macro -------------------------------------------------------------*/
  56:Drivers/STM32G4xx_HAL_Driver/Src/stm32g4xx_ll_usb.c **** /* Private variables ---------------------------------------------------------*/
  57:Drivers/STM32G4xx_HAL_Driver/Src/stm32g4xx_ll_usb.c **** /* Private function prototypes -----------------------------------------------*/
  58:Drivers/STM32G4xx_HAL_Driver/Src/stm32g4xx_ll_usb.c **** /* Private functions ---------------------------------------------------------*/
  59:Drivers/STM32G4xx_HAL_Driver/Src/stm32g4xx_ll_usb.c **** 
  60:Drivers/STM32G4xx_HAL_Driver/Src/stm32g4xx_ll_usb.c **** /**
  61:Drivers/STM32G4xx_HAL_Driver/Src/stm32g4xx_ll_usb.c ****   * @brief  Initializes the USB Core
  62:Drivers/STM32G4xx_HAL_Driver/Src/stm32g4xx_ll_usb.c ****   * @param  USBx USB Instance
  63:Drivers/STM32G4xx_HAL_Driver/Src/stm32g4xx_ll_usb.c ****   * @param  cfg pointer to a USB_CfgTypeDef structure that contains
  64:Drivers/STM32G4xx_HAL_Driver/Src/stm32g4xx_ll_usb.c ****   *         the configuration information for the specified USBx peripheral.
  65:Drivers/STM32G4xx_HAL_Driver/Src/stm32g4xx_ll_usb.c ****   * @retval HAL status
  66:Drivers/STM32G4xx_HAL_Driver/Src/stm32g4xx_ll_usb.c ****   */
  67:Drivers/STM32G4xx_HAL_Driver/Src/stm32g4xx_ll_usb.c **** HAL_StatusTypeDef USB_CoreInit(USB_TypeDef const *USBx, USB_CfgTypeDef cfg)
  68:Drivers/STM32G4xx_HAL_Driver/Src/stm32g4xx_ll_usb.c **** {
  30              		.loc 1 68 1 view -0
  31              		.cfi_startproc
  32              		@ args = 0, pretend = 0, frame = 8
  33              		@ frame_needed = 0, uses_anonymous_args = 0
  34              		@ link register save eliminated.
  35              		.loc 1 68 1 is_stmt 0 view .LVU1
  36 0000 82B0     		sub	sp, sp, #8
  37              	.LCFI0:
  38              		.cfi_def_cfa_offset 8
  39 0002 02AB     		add	r3, sp, #8
  40 0004 03E90600 		stmdb	r3, {r1, r2}
  69:Drivers/STM32G4xx_HAL_Driver/Src/stm32g4xx_ll_usb.c ****   /* Prevent unused argument(s) compilation warning */
  70:Drivers/STM32G4xx_HAL_Driver/Src/stm32g4xx_ll_usb.c ****   UNUSED(USBx);
  41              		.loc 1 70 3 is_stmt 1 view .LVU2
  71:Drivers/STM32G4xx_HAL_Driver/Src/stm32g4xx_ll_usb.c ****   UNUSED(cfg);
  42              		.loc 1 71 3 view .LVU3
  72:Drivers/STM32G4xx_HAL_Driver/Src/stm32g4xx_ll_usb.c **** 
  73:Drivers/STM32G4xx_HAL_Driver/Src/stm32g4xx_ll_usb.c ****   /* NOTE : - This function is not required by USB Device FS peripheral, it is used
ARM GAS  /tmp/cc98KGWN.s 			page 3


  74:Drivers/STM32G4xx_HAL_Driver/Src/stm32g4xx_ll_usb.c ****               only by USB OTG FS peripheral.
  75:Drivers/STM32G4xx_HAL_Driver/Src/stm32g4xx_ll_usb.c ****             - This function is added to ensure compatibility across platforms.
  76:Drivers/STM32G4xx_HAL_Driver/Src/stm32g4xx_ll_usb.c ****    */
  77:Drivers/STM32G4xx_HAL_Driver/Src/stm32g4xx_ll_usb.c **** 
  78:Drivers/STM32G4xx_HAL_Driver/Src/stm32g4xx_ll_usb.c ****   return HAL_OK;
  43              		.loc 1 78 3 view .LVU4
  79:Drivers/STM32G4xx_HAL_Driver/Src/stm32g4xx_ll_usb.c **** }
  44              		.loc 1 79 1 is_stmt 0 view .LVU5
  45 0008 0020     		movs	r0, #0
  46              	.LVL1:
  47              		.loc 1 79 1 view .LVU6
  48 000a 02B0     		add	sp, sp, #8
  49              	.LCFI1:
  50              		.cfi_def_cfa_offset 0
  51              		@ sp needed
  52 000c 7047     		bx	lr
  53              		.cfi_endproc
  54              	.LFE329:
  56              		.section	.text.USB_EnableGlobalInt,"ax",%progbits
  57              		.align	1
  58              		.global	USB_EnableGlobalInt
  59              		.syntax unified
  60              		.thumb
  61              		.thumb_func
  62              		.fpu fpv4-sp-d16
  64              	USB_EnableGlobalInt:
  65              	.LVL2:
  66              	.LFB330:
  80:Drivers/STM32G4xx_HAL_Driver/Src/stm32g4xx_ll_usb.c **** 
  81:Drivers/STM32G4xx_HAL_Driver/Src/stm32g4xx_ll_usb.c **** /**
  82:Drivers/STM32G4xx_HAL_Driver/Src/stm32g4xx_ll_usb.c ****   * @brief  USB_EnableGlobalInt
  83:Drivers/STM32G4xx_HAL_Driver/Src/stm32g4xx_ll_usb.c ****   *         Enables the controller's Global Int in the AHB Config reg
  84:Drivers/STM32G4xx_HAL_Driver/Src/stm32g4xx_ll_usb.c ****   * @param  USBx Selected device
  85:Drivers/STM32G4xx_HAL_Driver/Src/stm32g4xx_ll_usb.c ****   * @retval HAL status
  86:Drivers/STM32G4xx_HAL_Driver/Src/stm32g4xx_ll_usb.c ****   */
  87:Drivers/STM32G4xx_HAL_Driver/Src/stm32g4xx_ll_usb.c **** HAL_StatusTypeDef USB_EnableGlobalInt(USB_TypeDef *USBx)
  88:Drivers/STM32G4xx_HAL_Driver/Src/stm32g4xx_ll_usb.c **** {
  67              		.loc 1 88 1 is_stmt 1 view -0
  68              		.cfi_startproc
  69              		@ args = 0, pretend = 0, frame = 0
  70              		@ frame_needed = 0, uses_anonymous_args = 0
  71              		@ link register save eliminated.
  72              		.loc 1 88 1 is_stmt 0 view .LVU8
  73 0000 0346     		mov	r3, r0
  89:Drivers/STM32G4xx_HAL_Driver/Src/stm32g4xx_ll_usb.c ****   uint32_t winterruptmask;
  74              		.loc 1 89 3 is_stmt 1 view .LVU9
  90:Drivers/STM32G4xx_HAL_Driver/Src/stm32g4xx_ll_usb.c **** 
  91:Drivers/STM32G4xx_HAL_Driver/Src/stm32g4xx_ll_usb.c ****   /* Clear pending interrupts */
  92:Drivers/STM32G4xx_HAL_Driver/Src/stm32g4xx_ll_usb.c ****   USBx->ISTR = 0U;
  75              		.loc 1 92 3 view .LVU10
  76              		.loc 1 92 14 is_stmt 0 view .LVU11
  77 0002 0020     		movs	r0, #0
  78              	.LVL3:
  79              		.loc 1 92 14 view .LVU12
  80 0004 A3F84400 		strh	r0, [r3, #68]	@ movhi
  93:Drivers/STM32G4xx_HAL_Driver/Src/stm32g4xx_ll_usb.c **** 
  94:Drivers/STM32G4xx_HAL_Driver/Src/stm32g4xx_ll_usb.c ****   /* Set winterruptmask variable */
ARM GAS  /tmp/cc98KGWN.s 			page 4


  95:Drivers/STM32G4xx_HAL_Driver/Src/stm32g4xx_ll_usb.c ****   winterruptmask = USB_CNTR_CTRM  | USB_CNTR_WKUPM |
  81              		.loc 1 95 3 is_stmt 1 view .LVU13
  82              	.LVL4:
  96:Drivers/STM32G4xx_HAL_Driver/Src/stm32g4xx_ll_usb.c ****                    USB_CNTR_SUSPM | USB_CNTR_ERRM |
  97:Drivers/STM32G4xx_HAL_Driver/Src/stm32g4xx_ll_usb.c ****                    USB_CNTR_SOFM | USB_CNTR_ESOFM |
  98:Drivers/STM32G4xx_HAL_Driver/Src/stm32g4xx_ll_usb.c ****                    USB_CNTR_RESETM | USB_CNTR_L1REQM;
  99:Drivers/STM32G4xx_HAL_Driver/Src/stm32g4xx_ll_usb.c **** 
 100:Drivers/STM32G4xx_HAL_Driver/Src/stm32g4xx_ll_usb.c ****   /* Set interrupt mask */
 101:Drivers/STM32G4xx_HAL_Driver/Src/stm32g4xx_ll_usb.c ****   USBx->CNTR = (uint16_t)winterruptmask;
  83              		.loc 1 101 3 view .LVU14
  84              		.loc 1 101 14 is_stmt 0 view .LVU15
  85 0008 4BF68072 		movw	r2, #49024
  86 000c A3F84020 		strh	r2, [r3, #64]	@ movhi
 102:Drivers/STM32G4xx_HAL_Driver/Src/stm32g4xx_ll_usb.c **** 
 103:Drivers/STM32G4xx_HAL_Driver/Src/stm32g4xx_ll_usb.c ****   return HAL_OK;
  87              		.loc 1 103 3 is_stmt 1 view .LVU16
 104:Drivers/STM32G4xx_HAL_Driver/Src/stm32g4xx_ll_usb.c **** }
  88              		.loc 1 104 1 is_stmt 0 view .LVU17
  89 0010 7047     		bx	lr
  90              		.cfi_endproc
  91              	.LFE330:
  93              		.section	.text.USB_DisableGlobalInt,"ax",%progbits
  94              		.align	1
  95              		.global	USB_DisableGlobalInt
  96              		.syntax unified
  97              		.thumb
  98              		.thumb_func
  99              		.fpu fpv4-sp-d16
 101              	USB_DisableGlobalInt:
 102              	.LVL5:
 103              	.LFB331:
 105:Drivers/STM32G4xx_HAL_Driver/Src/stm32g4xx_ll_usb.c **** 
 106:Drivers/STM32G4xx_HAL_Driver/Src/stm32g4xx_ll_usb.c **** /**
 107:Drivers/STM32G4xx_HAL_Driver/Src/stm32g4xx_ll_usb.c ****   * @brief  USB_DisableGlobalInt
 108:Drivers/STM32G4xx_HAL_Driver/Src/stm32g4xx_ll_usb.c ****   *         Disable the controller's Global Int in the AHB Config reg
 109:Drivers/STM32G4xx_HAL_Driver/Src/stm32g4xx_ll_usb.c ****   * @param  USBx Selected device
 110:Drivers/STM32G4xx_HAL_Driver/Src/stm32g4xx_ll_usb.c ****   * @retval HAL status
 111:Drivers/STM32G4xx_HAL_Driver/Src/stm32g4xx_ll_usb.c ****   */
 112:Drivers/STM32G4xx_HAL_Driver/Src/stm32g4xx_ll_usb.c **** HAL_StatusTypeDef USB_DisableGlobalInt(USB_TypeDef *USBx)
 113:Drivers/STM32G4xx_HAL_Driver/Src/stm32g4xx_ll_usb.c **** {
 104              		.loc 1 113 1 is_stmt 1 view -0
 105              		.cfi_startproc
 106              		@ args = 0, pretend = 0, frame = 0
 107              		@ frame_needed = 0, uses_anonymous_args = 0
 108              		@ link register save eliminated.
 114:Drivers/STM32G4xx_HAL_Driver/Src/stm32g4xx_ll_usb.c ****   uint32_t winterruptmask;
 109              		.loc 1 114 3 view .LVU19
 115:Drivers/STM32G4xx_HAL_Driver/Src/stm32g4xx_ll_usb.c **** 
 116:Drivers/STM32G4xx_HAL_Driver/Src/stm32g4xx_ll_usb.c ****   /* Set winterruptmask variable */
 117:Drivers/STM32G4xx_HAL_Driver/Src/stm32g4xx_ll_usb.c ****   winterruptmask = USB_CNTR_CTRM  | USB_CNTR_WKUPM |
 110              		.loc 1 117 3 view .LVU20
 118:Drivers/STM32G4xx_HAL_Driver/Src/stm32g4xx_ll_usb.c ****                    USB_CNTR_SUSPM | USB_CNTR_ERRM |
 119:Drivers/STM32G4xx_HAL_Driver/Src/stm32g4xx_ll_usb.c ****                    USB_CNTR_SOFM | USB_CNTR_ESOFM |
 120:Drivers/STM32G4xx_HAL_Driver/Src/stm32g4xx_ll_usb.c ****                    USB_CNTR_RESETM | USB_CNTR_L1REQM;
 121:Drivers/STM32G4xx_HAL_Driver/Src/stm32g4xx_ll_usb.c **** 
 122:Drivers/STM32G4xx_HAL_Driver/Src/stm32g4xx_ll_usb.c ****   /* Clear interrupt mask */
 123:Drivers/STM32G4xx_HAL_Driver/Src/stm32g4xx_ll_usb.c ****   USBx->CNTR &= (uint16_t)(~winterruptmask);
ARM GAS  /tmp/cc98KGWN.s 			page 5


 111              		.loc 1 123 3 view .LVU21
 112              		.loc 1 123 14 is_stmt 0 view .LVU22
 113 0000 B0F84030 		ldrh	r3, [r0, #64]
 114 0004 23F47E53 		bic	r3, r3, #16256
 115 0008 5B04     		lsls	r3, r3, #17
 116 000a 5B0C     		lsrs	r3, r3, #17
 117 000c A0F84030 		strh	r3, [r0, #64]	@ movhi
 124:Drivers/STM32G4xx_HAL_Driver/Src/stm32g4xx_ll_usb.c **** 
 125:Drivers/STM32G4xx_HAL_Driver/Src/stm32g4xx_ll_usb.c ****   return HAL_OK;
 118              		.loc 1 125 3 is_stmt 1 view .LVU23
 126:Drivers/STM32G4xx_HAL_Driver/Src/stm32g4xx_ll_usb.c **** }
 119              		.loc 1 126 1 is_stmt 0 view .LVU24
 120 0010 0020     		movs	r0, #0
 121              	.LVL6:
 122              		.loc 1 126 1 view .LVU25
 123 0012 7047     		bx	lr
 124              		.cfi_endproc
 125              	.LFE331:
 127              		.section	.text.USB_SetCurrentMode,"ax",%progbits
 128              		.align	1
 129              		.global	USB_SetCurrentMode
 130              		.syntax unified
 131              		.thumb
 132              		.thumb_func
 133              		.fpu fpv4-sp-d16
 135              	USB_SetCurrentMode:
 136              	.LVL7:
 137              	.LFB332:
 127:Drivers/STM32G4xx_HAL_Driver/Src/stm32g4xx_ll_usb.c **** 
 128:Drivers/STM32G4xx_HAL_Driver/Src/stm32g4xx_ll_usb.c **** /**
 129:Drivers/STM32G4xx_HAL_Driver/Src/stm32g4xx_ll_usb.c ****   * @brief  USB_SetCurrentMode Set functional mode
 130:Drivers/STM32G4xx_HAL_Driver/Src/stm32g4xx_ll_usb.c ****   * @param  USBx Selected device
 131:Drivers/STM32G4xx_HAL_Driver/Src/stm32g4xx_ll_usb.c ****   * @param  mode current core mode
 132:Drivers/STM32G4xx_HAL_Driver/Src/stm32g4xx_ll_usb.c ****   *          This parameter can be one of the these values:
 133:Drivers/STM32G4xx_HAL_Driver/Src/stm32g4xx_ll_usb.c ****   *            @arg USB_DEVICE_MODE Peripheral mode
 134:Drivers/STM32G4xx_HAL_Driver/Src/stm32g4xx_ll_usb.c ****   * @retval HAL status
 135:Drivers/STM32G4xx_HAL_Driver/Src/stm32g4xx_ll_usb.c ****   */
 136:Drivers/STM32G4xx_HAL_Driver/Src/stm32g4xx_ll_usb.c **** HAL_StatusTypeDef USB_SetCurrentMode(USB_TypeDef const *USBx, USB_ModeTypeDef mode)
 137:Drivers/STM32G4xx_HAL_Driver/Src/stm32g4xx_ll_usb.c **** {
 138              		.loc 1 137 1 is_stmt 1 view -0
 139              		.cfi_startproc
 140              		@ args = 0, pretend = 0, frame = 0
 141              		@ frame_needed = 0, uses_anonymous_args = 0
 142              		@ link register save eliminated.
 138:Drivers/STM32G4xx_HAL_Driver/Src/stm32g4xx_ll_usb.c ****   /* Prevent unused argument(s) compilation warning */
 139:Drivers/STM32G4xx_HAL_Driver/Src/stm32g4xx_ll_usb.c ****   UNUSED(USBx);
 143              		.loc 1 139 3 view .LVU27
 140:Drivers/STM32G4xx_HAL_Driver/Src/stm32g4xx_ll_usb.c ****   UNUSED(mode);
 144              		.loc 1 140 3 view .LVU28
 141:Drivers/STM32G4xx_HAL_Driver/Src/stm32g4xx_ll_usb.c **** 
 142:Drivers/STM32G4xx_HAL_Driver/Src/stm32g4xx_ll_usb.c ****   /* NOTE : - This function is not required by USB Device FS peripheral, it is used
 143:Drivers/STM32G4xx_HAL_Driver/Src/stm32g4xx_ll_usb.c ****               only by USB OTG FS peripheral.
 144:Drivers/STM32G4xx_HAL_Driver/Src/stm32g4xx_ll_usb.c ****             - This function is added to ensure compatibility across platforms.
 145:Drivers/STM32G4xx_HAL_Driver/Src/stm32g4xx_ll_usb.c ****    */
 146:Drivers/STM32G4xx_HAL_Driver/Src/stm32g4xx_ll_usb.c ****   return HAL_OK;
 145              		.loc 1 146 3 view .LVU29
 147:Drivers/STM32G4xx_HAL_Driver/Src/stm32g4xx_ll_usb.c **** }
ARM GAS  /tmp/cc98KGWN.s 			page 6


 146              		.loc 1 147 1 is_stmt 0 view .LVU30
 147 0000 0020     		movs	r0, #0
 148              	.LVL8:
 149              		.loc 1 147 1 view .LVU31
 150 0002 7047     		bx	lr
 151              		.cfi_endproc
 152              	.LFE332:
 154              		.section	.text.USB_DevInit,"ax",%progbits
 155              		.align	1
 156              		.global	USB_DevInit
 157              		.syntax unified
 158              		.thumb
 159              		.thumb_func
 160              		.fpu fpv4-sp-d16
 162              	USB_DevInit:
 163              	.LVL9:
 164              	.LFB333:
 148:Drivers/STM32G4xx_HAL_Driver/Src/stm32g4xx_ll_usb.c **** 
 149:Drivers/STM32G4xx_HAL_Driver/Src/stm32g4xx_ll_usb.c **** /**
 150:Drivers/STM32G4xx_HAL_Driver/Src/stm32g4xx_ll_usb.c ****   * @brief  USB_DevInit Initializes the USB controller registers
 151:Drivers/STM32G4xx_HAL_Driver/Src/stm32g4xx_ll_usb.c ****   *         for device mode
 152:Drivers/STM32G4xx_HAL_Driver/Src/stm32g4xx_ll_usb.c ****   * @param  USBx Selected device
 153:Drivers/STM32G4xx_HAL_Driver/Src/stm32g4xx_ll_usb.c ****   * @param  cfg  pointer to a USB_CfgTypeDef structure that contains
 154:Drivers/STM32G4xx_HAL_Driver/Src/stm32g4xx_ll_usb.c ****   *         the configuration information for the specified USBx peripheral.
 155:Drivers/STM32G4xx_HAL_Driver/Src/stm32g4xx_ll_usb.c ****   * @retval HAL status
 156:Drivers/STM32G4xx_HAL_Driver/Src/stm32g4xx_ll_usb.c ****   */
 157:Drivers/STM32G4xx_HAL_Driver/Src/stm32g4xx_ll_usb.c **** HAL_StatusTypeDef USB_DevInit(USB_TypeDef *USBx, USB_CfgTypeDef cfg)
 158:Drivers/STM32G4xx_HAL_Driver/Src/stm32g4xx_ll_usb.c **** {
 165              		.loc 1 158 1 is_stmt 1 view -0
 166              		.cfi_startproc
 167              		@ args = 0, pretend = 0, frame = 8
 168              		@ frame_needed = 0, uses_anonymous_args = 0
 169              		@ link register save eliminated.
 170              		.loc 1 158 1 is_stmt 0 view .LVU33
 171 0000 82B0     		sub	sp, sp, #8
 172              	.LCFI2:
 173              		.cfi_def_cfa_offset 8
 174 0002 0346     		mov	r3, r0
 175 0004 02A8     		add	r0, sp, #8
 176              	.LVL10:
 177              		.loc 1 158 1 view .LVU34
 178 0006 00E90600 		stmdb	r0, {r1, r2}
 159:Drivers/STM32G4xx_HAL_Driver/Src/stm32g4xx_ll_usb.c ****   /* Prevent unused argument(s) compilation warning */
 160:Drivers/STM32G4xx_HAL_Driver/Src/stm32g4xx_ll_usb.c ****   UNUSED(cfg);
 179              		.loc 1 160 3 is_stmt 1 view .LVU35
 161:Drivers/STM32G4xx_HAL_Driver/Src/stm32g4xx_ll_usb.c **** 
 162:Drivers/STM32G4xx_HAL_Driver/Src/stm32g4xx_ll_usb.c ****   /* Init Device */
 163:Drivers/STM32G4xx_HAL_Driver/Src/stm32g4xx_ll_usb.c ****   /* CNTR_FRES = 1 */
 164:Drivers/STM32G4xx_HAL_Driver/Src/stm32g4xx_ll_usb.c ****   USBx->CNTR = (uint16_t)USB_CNTR_FRES;
 180              		.loc 1 164 3 view .LVU36
 181              		.loc 1 164 14 is_stmt 0 view .LVU37
 182 000a 0122     		movs	r2, #1
 183 000c A3F84020 		strh	r2, [r3, #64]	@ movhi
 165:Drivers/STM32G4xx_HAL_Driver/Src/stm32g4xx_ll_usb.c **** 
 166:Drivers/STM32G4xx_HAL_Driver/Src/stm32g4xx_ll_usb.c ****   /* CNTR_FRES = 0 */
 167:Drivers/STM32G4xx_HAL_Driver/Src/stm32g4xx_ll_usb.c ****   USBx->CNTR = 0U;
 184              		.loc 1 167 3 is_stmt 1 view .LVU38
ARM GAS  /tmp/cc98KGWN.s 			page 7


 185              		.loc 1 167 14 is_stmt 0 view .LVU39
 186 0010 0020     		movs	r0, #0
 187 0012 A3F84000 		strh	r0, [r3, #64]	@ movhi
 168:Drivers/STM32G4xx_HAL_Driver/Src/stm32g4xx_ll_usb.c **** 
 169:Drivers/STM32G4xx_HAL_Driver/Src/stm32g4xx_ll_usb.c ****   /* Clear pending interrupts */
 170:Drivers/STM32G4xx_HAL_Driver/Src/stm32g4xx_ll_usb.c ****   USBx->ISTR = 0U;
 188              		.loc 1 170 3 is_stmt 1 view .LVU40
 189              		.loc 1 170 14 is_stmt 0 view .LVU41
 190 0016 A3F84400 		strh	r0, [r3, #68]	@ movhi
 171:Drivers/STM32G4xx_HAL_Driver/Src/stm32g4xx_ll_usb.c **** 
 172:Drivers/STM32G4xx_HAL_Driver/Src/stm32g4xx_ll_usb.c ****   /*Set Btable Address*/
 173:Drivers/STM32G4xx_HAL_Driver/Src/stm32g4xx_ll_usb.c ****   USBx->BTABLE = BTABLE_ADDRESS;
 191              		.loc 1 173 3 is_stmt 1 view .LVU42
 192              		.loc 1 173 16 is_stmt 0 view .LVU43
 193 001a A3F85000 		strh	r0, [r3, #80]	@ movhi
 174:Drivers/STM32G4xx_HAL_Driver/Src/stm32g4xx_ll_usb.c **** 
 175:Drivers/STM32G4xx_HAL_Driver/Src/stm32g4xx_ll_usb.c ****   return HAL_OK;
 194              		.loc 1 175 3 is_stmt 1 view .LVU44
 176:Drivers/STM32G4xx_HAL_Driver/Src/stm32g4xx_ll_usb.c **** }
 195              		.loc 1 176 1 is_stmt 0 view .LVU45
 196 001e 02B0     		add	sp, sp, #8
 197              	.LCFI3:
 198              		.cfi_def_cfa_offset 0
 199              		@ sp needed
 200 0020 7047     		bx	lr
 201              		.cfi_endproc
 202              	.LFE333:
 204              		.section	.text.USB_FlushTxFifo,"ax",%progbits
 205              		.align	1
 206              		.global	USB_FlushTxFifo
 207              		.syntax unified
 208              		.thumb
 209              		.thumb_func
 210              		.fpu fpv4-sp-d16
 212              	USB_FlushTxFifo:
 213              	.LVL11:
 214              	.LFB334:
 177:Drivers/STM32G4xx_HAL_Driver/Src/stm32g4xx_ll_usb.c **** 
 178:Drivers/STM32G4xx_HAL_Driver/Src/stm32g4xx_ll_usb.c **** /**
 179:Drivers/STM32G4xx_HAL_Driver/Src/stm32g4xx_ll_usb.c ****   * @brief  USB_FlushTxFifo : Flush a Tx FIFO
 180:Drivers/STM32G4xx_HAL_Driver/Src/stm32g4xx_ll_usb.c ****   * @param  USBx : Selected device
 181:Drivers/STM32G4xx_HAL_Driver/Src/stm32g4xx_ll_usb.c ****   * @param  num : FIFO number
 182:Drivers/STM32G4xx_HAL_Driver/Src/stm32g4xx_ll_usb.c ****   *         This parameter can be a value from 1 to 15
 183:Drivers/STM32G4xx_HAL_Driver/Src/stm32g4xx_ll_usb.c ****             15 means Flush all Tx FIFOs
 184:Drivers/STM32G4xx_HAL_Driver/Src/stm32g4xx_ll_usb.c ****   * @retval HAL status
 185:Drivers/STM32G4xx_HAL_Driver/Src/stm32g4xx_ll_usb.c ****   */
 186:Drivers/STM32G4xx_HAL_Driver/Src/stm32g4xx_ll_usb.c **** HAL_StatusTypeDef USB_FlushTxFifo(USB_TypeDef const *USBx, uint32_t num)
 187:Drivers/STM32G4xx_HAL_Driver/Src/stm32g4xx_ll_usb.c **** {
 215              		.loc 1 187 1 is_stmt 1 view -0
 216              		.cfi_startproc
 217              		@ args = 0, pretend = 0, frame = 0
 218              		@ frame_needed = 0, uses_anonymous_args = 0
 219              		@ link register save eliminated.
 188:Drivers/STM32G4xx_HAL_Driver/Src/stm32g4xx_ll_usb.c ****   /* Prevent unused argument(s) compilation warning */
 189:Drivers/STM32G4xx_HAL_Driver/Src/stm32g4xx_ll_usb.c ****   UNUSED(USBx);
 220              		.loc 1 189 3 view .LVU47
 190:Drivers/STM32G4xx_HAL_Driver/Src/stm32g4xx_ll_usb.c ****   UNUSED(num);
ARM GAS  /tmp/cc98KGWN.s 			page 8


 221              		.loc 1 190 3 view .LVU48
 191:Drivers/STM32G4xx_HAL_Driver/Src/stm32g4xx_ll_usb.c **** 
 192:Drivers/STM32G4xx_HAL_Driver/Src/stm32g4xx_ll_usb.c ****   /* NOTE : - This function is not required by USB Device FS peripheral, it is used
 193:Drivers/STM32G4xx_HAL_Driver/Src/stm32g4xx_ll_usb.c ****               only by USB OTG FS peripheral.
 194:Drivers/STM32G4xx_HAL_Driver/Src/stm32g4xx_ll_usb.c ****             - This function is added to ensure compatibility across platforms.
 195:Drivers/STM32G4xx_HAL_Driver/Src/stm32g4xx_ll_usb.c ****    */
 196:Drivers/STM32G4xx_HAL_Driver/Src/stm32g4xx_ll_usb.c **** 
 197:Drivers/STM32G4xx_HAL_Driver/Src/stm32g4xx_ll_usb.c ****   return HAL_OK;
 222              		.loc 1 197 3 view .LVU49
 198:Drivers/STM32G4xx_HAL_Driver/Src/stm32g4xx_ll_usb.c **** }
 223              		.loc 1 198 1 is_stmt 0 view .LVU50
 224 0000 0020     		movs	r0, #0
 225              	.LVL12:
 226              		.loc 1 198 1 view .LVU51
 227 0002 7047     		bx	lr
 228              		.cfi_endproc
 229              	.LFE334:
 231              		.section	.text.USB_FlushRxFifo,"ax",%progbits
 232              		.align	1
 233              		.global	USB_FlushRxFifo
 234              		.syntax unified
 235              		.thumb
 236              		.thumb_func
 237              		.fpu fpv4-sp-d16
 239              	USB_FlushRxFifo:
 240              	.LVL13:
 241              	.LFB335:
 199:Drivers/STM32G4xx_HAL_Driver/Src/stm32g4xx_ll_usb.c **** 
 200:Drivers/STM32G4xx_HAL_Driver/Src/stm32g4xx_ll_usb.c **** /**
 201:Drivers/STM32G4xx_HAL_Driver/Src/stm32g4xx_ll_usb.c ****   * @brief  USB_FlushRxFifo : Flush Rx FIFO
 202:Drivers/STM32G4xx_HAL_Driver/Src/stm32g4xx_ll_usb.c ****   * @param  USBx : Selected device
 203:Drivers/STM32G4xx_HAL_Driver/Src/stm32g4xx_ll_usb.c ****   * @retval HAL status
 204:Drivers/STM32G4xx_HAL_Driver/Src/stm32g4xx_ll_usb.c ****   */
 205:Drivers/STM32G4xx_HAL_Driver/Src/stm32g4xx_ll_usb.c **** HAL_StatusTypeDef USB_FlushRxFifo(USB_TypeDef const *USBx)
 206:Drivers/STM32G4xx_HAL_Driver/Src/stm32g4xx_ll_usb.c **** {
 242              		.loc 1 206 1 is_stmt 1 view -0
 243              		.cfi_startproc
 244              		@ args = 0, pretend = 0, frame = 0
 245              		@ frame_needed = 0, uses_anonymous_args = 0
 246              		@ link register save eliminated.
 207:Drivers/STM32G4xx_HAL_Driver/Src/stm32g4xx_ll_usb.c ****   /* Prevent unused argument(s) compilation warning */
 208:Drivers/STM32G4xx_HAL_Driver/Src/stm32g4xx_ll_usb.c ****   UNUSED(USBx);
 247              		.loc 1 208 3 view .LVU53
 209:Drivers/STM32G4xx_HAL_Driver/Src/stm32g4xx_ll_usb.c **** 
 210:Drivers/STM32G4xx_HAL_Driver/Src/stm32g4xx_ll_usb.c ****   /* NOTE : - This function is not required by USB Device FS peripheral, it is used
 211:Drivers/STM32G4xx_HAL_Driver/Src/stm32g4xx_ll_usb.c ****               only by USB OTG FS peripheral.
 212:Drivers/STM32G4xx_HAL_Driver/Src/stm32g4xx_ll_usb.c ****             - This function is added to ensure compatibility across platforms.
 213:Drivers/STM32G4xx_HAL_Driver/Src/stm32g4xx_ll_usb.c ****    */
 214:Drivers/STM32G4xx_HAL_Driver/Src/stm32g4xx_ll_usb.c **** 
 215:Drivers/STM32G4xx_HAL_Driver/Src/stm32g4xx_ll_usb.c ****   return HAL_OK;
 248              		.loc 1 215 3 view .LVU54
 216:Drivers/STM32G4xx_HAL_Driver/Src/stm32g4xx_ll_usb.c **** }
 249              		.loc 1 216 1 is_stmt 0 view .LVU55
 250 0000 0020     		movs	r0, #0
 251              	.LVL14:
 252              		.loc 1 216 1 view .LVU56
 253 0002 7047     		bx	lr
ARM GAS  /tmp/cc98KGWN.s 			page 9


 254              		.cfi_endproc
 255              	.LFE335:
 257              		.section	.text.USB_ActivateEndpoint,"ax",%progbits
 258              		.align	1
 259              		.global	USB_ActivateEndpoint
 260              		.syntax unified
 261              		.thumb
 262              		.thumb_func
 263              		.fpu fpv4-sp-d16
 265              	USB_ActivateEndpoint:
 266              	.LVL15:
 267              	.LFB336:
 217:Drivers/STM32G4xx_HAL_Driver/Src/stm32g4xx_ll_usb.c **** 
 218:Drivers/STM32G4xx_HAL_Driver/Src/stm32g4xx_ll_usb.c **** 
 219:Drivers/STM32G4xx_HAL_Driver/Src/stm32g4xx_ll_usb.c **** #if defined (HAL_PCD_MODULE_ENABLED)
 220:Drivers/STM32G4xx_HAL_Driver/Src/stm32g4xx_ll_usb.c **** /**
 221:Drivers/STM32G4xx_HAL_Driver/Src/stm32g4xx_ll_usb.c ****   * @brief  Activate and configure an endpoint
 222:Drivers/STM32G4xx_HAL_Driver/Src/stm32g4xx_ll_usb.c ****   * @param  USBx Selected device
 223:Drivers/STM32G4xx_HAL_Driver/Src/stm32g4xx_ll_usb.c ****   * @param  ep pointer to endpoint structure
 224:Drivers/STM32G4xx_HAL_Driver/Src/stm32g4xx_ll_usb.c ****   * @retval HAL status
 225:Drivers/STM32G4xx_HAL_Driver/Src/stm32g4xx_ll_usb.c ****   */
 226:Drivers/STM32G4xx_HAL_Driver/Src/stm32g4xx_ll_usb.c **** HAL_StatusTypeDef USB_ActivateEndpoint(USB_TypeDef *USBx, USB_EPTypeDef *ep)
 227:Drivers/STM32G4xx_HAL_Driver/Src/stm32g4xx_ll_usb.c **** {
 268              		.loc 1 227 1 is_stmt 1 view -0
 269              		.cfi_startproc
 270              		@ args = 0, pretend = 0, frame = 0
 271              		@ frame_needed = 0, uses_anonymous_args = 0
 272              		.loc 1 227 1 is_stmt 0 view .LVU58
 273 0000 10B5     		push	{r4, lr}
 274              	.LCFI4:
 275              		.cfi_def_cfa_offset 8
 276              		.cfi_offset 4, -8
 277              		.cfi_offset 14, -4
 278 0002 0346     		mov	r3, r0
 228:Drivers/STM32G4xx_HAL_Driver/Src/stm32g4xx_ll_usb.c ****   HAL_StatusTypeDef ret = HAL_OK;
 279              		.loc 1 228 3 is_stmt 1 view .LVU59
 280              	.LVL16:
 229:Drivers/STM32G4xx_HAL_Driver/Src/stm32g4xx_ll_usb.c ****   uint16_t wEpRegVal;
 281              		.loc 1 229 3 view .LVU60
 230:Drivers/STM32G4xx_HAL_Driver/Src/stm32g4xx_ll_usb.c **** 
 231:Drivers/STM32G4xx_HAL_Driver/Src/stm32g4xx_ll_usb.c ****   wEpRegVal = PCD_GET_ENDPOINT(USBx, ep->num) & USB_EP_T_MASK;
 282              		.loc 1 231 3 view .LVU61
 283              		.loc 1 231 15 is_stmt 0 view .LVU62
 284 0004 0A78     		ldrb	r2, [r1]	@ zero_extendqisi2
 285              		.loc 1 231 47 view .LVU63
 286 0006 30F822C0 		ldrh	ip, [r0, r2, lsl #2]
 287 000a 1FFA8CFC 		uxth	ip, ip
 288              		.loc 1 231 13 view .LVU64
 289 000e 2CF4EC4C 		bic	ip, ip, #30208
 290 0012 2CF0700C 		bic	ip, ip, #112
 291 0016 1FFA8CFC 		uxth	ip, ip
 292              	.LVL17:
 232:Drivers/STM32G4xx_HAL_Driver/Src/stm32g4xx_ll_usb.c **** 
 233:Drivers/STM32G4xx_HAL_Driver/Src/stm32g4xx_ll_usb.c ****   /* initialize Endpoint */
 234:Drivers/STM32G4xx_HAL_Driver/Src/stm32g4xx_ll_usb.c ****   switch (ep->type)
 293              		.loc 1 234 3 is_stmt 1 view .LVU65
 294              		.loc 1 234 13 is_stmt 0 view .LVU66
ARM GAS  /tmp/cc98KGWN.s 			page 10


 295 001a C878     		ldrb	r0, [r1, #3]	@ zero_extendqisi2
 296              	.LVL18:
 297              		.loc 1 234 3 view .LVU67
 298 001c 0328     		cmp	r0, #3
 299 001e 62D8     		bhi	.L50
 300 0020 DFE800F0 		tbb	[pc, r0]
 301              	.L13:
 302 0024 56       		.byte	(.L16-.L13)/2
 303 0025 5D       		.byte	(.L15-.L13)/2
 304 0026 02       		.byte	(.L14-.L13)/2
 305 0027 59       		.byte	(.L12-.L13)/2
 306              		.p2align 1
 307              	.L14:
 308 0028 0020     		movs	r0, #0
 309              	.L11:
 310              	.LVL19:
 235:Drivers/STM32G4xx_HAL_Driver/Src/stm32g4xx_ll_usb.c ****   {
 236:Drivers/STM32G4xx_HAL_Driver/Src/stm32g4xx_ll_usb.c ****     case EP_TYPE_CTRL:
 237:Drivers/STM32G4xx_HAL_Driver/Src/stm32g4xx_ll_usb.c ****       wEpRegVal |= USB_EP_CONTROL;
 238:Drivers/STM32G4xx_HAL_Driver/Src/stm32g4xx_ll_usb.c ****       break;
 239:Drivers/STM32G4xx_HAL_Driver/Src/stm32g4xx_ll_usb.c **** 
 240:Drivers/STM32G4xx_HAL_Driver/Src/stm32g4xx_ll_usb.c ****     case EP_TYPE_BULK:
 241:Drivers/STM32G4xx_HAL_Driver/Src/stm32g4xx_ll_usb.c ****       wEpRegVal |= USB_EP_BULK;
 242:Drivers/STM32G4xx_HAL_Driver/Src/stm32g4xx_ll_usb.c ****       break;
 243:Drivers/STM32G4xx_HAL_Driver/Src/stm32g4xx_ll_usb.c **** 
 244:Drivers/STM32G4xx_HAL_Driver/Src/stm32g4xx_ll_usb.c ****     case EP_TYPE_INTR:
 245:Drivers/STM32G4xx_HAL_Driver/Src/stm32g4xx_ll_usb.c ****       wEpRegVal |= USB_EP_INTERRUPT;
 246:Drivers/STM32G4xx_HAL_Driver/Src/stm32g4xx_ll_usb.c ****       break;
 247:Drivers/STM32G4xx_HAL_Driver/Src/stm32g4xx_ll_usb.c **** 
 248:Drivers/STM32G4xx_HAL_Driver/Src/stm32g4xx_ll_usb.c ****     case EP_TYPE_ISOC:
 249:Drivers/STM32G4xx_HAL_Driver/Src/stm32g4xx_ll_usb.c ****       wEpRegVal |= USB_EP_ISOCHRONOUS;
 250:Drivers/STM32G4xx_HAL_Driver/Src/stm32g4xx_ll_usb.c ****       break;
 251:Drivers/STM32G4xx_HAL_Driver/Src/stm32g4xx_ll_usb.c **** 
 252:Drivers/STM32G4xx_HAL_Driver/Src/stm32g4xx_ll_usb.c ****     default:
 253:Drivers/STM32G4xx_HAL_Driver/Src/stm32g4xx_ll_usb.c ****       ret = HAL_ERROR;
 254:Drivers/STM32G4xx_HAL_Driver/Src/stm32g4xx_ll_usb.c ****       break;
 255:Drivers/STM32G4xx_HAL_Driver/Src/stm32g4xx_ll_usb.c ****   }
 256:Drivers/STM32G4xx_HAL_Driver/Src/stm32g4xx_ll_usb.c **** 
 257:Drivers/STM32G4xx_HAL_Driver/Src/stm32g4xx_ll_usb.c ****   PCD_SET_ENDPOINT(USBx, ep->num, (wEpRegVal | USB_EP_CTR_RX | USB_EP_CTR_TX));
 311              		.loc 1 257 3 is_stmt 1 view .LVU68
 312 002a 48F2800E 		movw	lr, #32896
 313 002e 4CEA0E0C 		orr	ip, ip, lr
 314              	.LVL20:
 315              		.loc 1 257 3 is_stmt 0 view .LVU69
 316 0032 23F822C0 		strh	ip, [r3, r2, lsl #2]	@ movhi
 258:Drivers/STM32G4xx_HAL_Driver/Src/stm32g4xx_ll_usb.c **** 
 259:Drivers/STM32G4xx_HAL_Driver/Src/stm32g4xx_ll_usb.c ****   PCD_SET_EP_ADDRESS(USBx, ep->num, ep->num);
 317              		.loc 1 259 3 is_stmt 1 view .LVU70
 318              	.LBB2:
 319              		.loc 1 259 3 view .LVU71
 320              		.loc 1 259 3 view .LVU72
 321 0036 91F800C0 		ldrb	ip, [r1]	@ zero_extendqisi2
 322 003a 33F82C20 		ldrh	r2, [r3, ip, lsl #2]
 323 003e 12B2     		sxth	r2, r2
 324 0040 22F4E042 		bic	r2, r2, #28672
 325 0044 22F07002 		bic	r2, r2, #112
 326 0048 4CEA0202 		orr	r2, ip, r2
ARM GAS  /tmp/cc98KGWN.s 			page 11


 327 004c 92B2     		uxth	r2, r2
 328              	.LVL21:
 329              		.loc 1 259 3 view .LVU73
 330 004e 42EA0E02 		orr	r2, r2, lr
 331              	.LVL22:
 332              		.loc 1 259 3 is_stmt 0 view .LVU74
 333 0052 23F82C20 		strh	r2, [r3, ip, lsl #2]	@ movhi
 334              	.LBE2:
 335              		.loc 1 259 3 is_stmt 1 view .LVU75
 260:Drivers/STM32G4xx_HAL_Driver/Src/stm32g4xx_ll_usb.c **** 
 261:Drivers/STM32G4xx_HAL_Driver/Src/stm32g4xx_ll_usb.c ****   if (ep->doublebuffer == 0U)
 336              		.loc 1 261 3 view .LVU76
 337              		.loc 1 261 9 is_stmt 0 view .LVU77
 338 0056 0A7B     		ldrb	r2, [r1, #12]	@ zero_extendqisi2
 339              		.loc 1 261 6 view .LVU78
 340 0058 002A     		cmp	r2, #0
 341 005a 40F0DC80 		bne	.L17
 262:Drivers/STM32G4xx_HAL_Driver/Src/stm32g4xx_ll_usb.c ****   {
 263:Drivers/STM32G4xx_HAL_Driver/Src/stm32g4xx_ll_usb.c ****     if (ep->is_in != 0U)
 342              		.loc 1 263 5 is_stmt 1 view .LVU79
 343              		.loc 1 263 11 is_stmt 0 view .LVU80
 344 005e 4A78     		ldrb	r2, [r1, #1]	@ zero_extendqisi2
 345              		.loc 1 263 8 view .LVU81
 346 0060 002A     		cmp	r2, #0
 347 0062 51D0     		beq	.L18
 264:Drivers/STM32G4xx_HAL_Driver/Src/stm32g4xx_ll_usb.c ****     {
 265:Drivers/STM32G4xx_HAL_Driver/Src/stm32g4xx_ll_usb.c ****       /*Set the endpoint Transmit buffer address */
 266:Drivers/STM32G4xx_HAL_Driver/Src/stm32g4xx_ll_usb.c ****       PCD_SET_EP_TX_ADDRESS(USBx, ep->num, ep->pmaadress);
 348              		.loc 1 266 7 is_stmt 1 view .LVU82
 349              	.LBB3:
 350              		.loc 1 266 7 view .LVU83
 351              		.loc 1 266 7 view .LVU84
 352              	.LVL23:
 353              		.loc 1 266 7 view .LVU85
 354 0064 B3F85020 		ldrh	r2, [r3, #80]
 355 0068 13FA82F2 		uxtah	r2, r3, r2
 356              	.LVL24:
 357              		.loc 1 266 7 view .LVU86
 358 006c 0C78     		ldrb	r4, [r1]	@ zero_extendqisi2
 359 006e 02EBC402 		add	r2, r2, r4, lsl #3
 360              	.LVL25:
 361              		.loc 1 266 7 view .LVU87
 362 0072 B1F806C0 		ldrh	ip, [r1, #6]
 363              		.loc 1 266 7 is_stmt 0 view .LVU88
 364 0076 4FEA5C0C 		lsr	ip, ip, #1
 365 007a 4FEA4C0C 		lsl	ip, ip, #1
 366 007e A2F800C4 		strh	ip, [r2, #1024]	@ movhi
 367              	.LBE3:
 368              		.loc 1 266 7 is_stmt 1 view .LVU89
 267:Drivers/STM32G4xx_HAL_Driver/Src/stm32g4xx_ll_usb.c ****       PCD_CLEAR_TX_DTOG(USBx, ep->num);
 369              		.loc 1 267 7 view .LVU90
 370              	.LBB4:
 371              		.loc 1 267 7 view .LVU91
 372              		.loc 1 267 7 view .LVU92
 373 0082 0C78     		ldrb	r4, [r1]	@ zero_extendqisi2
 374 0084 33F82420 		ldrh	r2, [r3, r4, lsl #2]
 375              	.LVL26:
ARM GAS  /tmp/cc98KGWN.s 			page 12


 376              		.loc 1 267 7 view .LVU93
 377 0088 12F0400F 		tst	r2, #64
 378 008c 0CD0     		beq	.L19
 379              		.loc 1 267 7 discriminator 1 view .LVU94
 380              	.LBB5:
 381              		.loc 1 267 7 discriminator 1 view .LVU95
 382              		.loc 1 267 7 discriminator 1 view .LVU96
 383 008e 33F82420 		ldrh	r2, [r3, r4, lsl #2]
 384              	.LVL27:
 385              		.loc 1 267 7 is_stmt 0 discriminator 1 view .LVU97
 386 0092 92B2     		uxth	r2, r2
 387 0094 22F4E042 		bic	r2, r2, #28672
 388 0098 22F07002 		bic	r2, r2, #112
 389              	.LVL28:
 390              		.loc 1 267 7 is_stmt 1 discriminator 1 view .LVU98
 391 009c 42F40042 		orr	r2, r2, #32768
 392              	.LVL29:
 393              		.loc 1 267 7 is_stmt 0 discriminator 1 view .LVU99
 394 00a0 42F0C002 		orr	r2, r2, #192
 395 00a4 23F82420 		strh	r2, [r3, r4, lsl #2]	@ movhi
 396              	.L19:
 397              		.loc 1 267 7 discriminator 1 view .LVU100
 398              	.LBE5:
 399              		.loc 1 267 7 is_stmt 1 discriminator 3 view .LVU101
 400              	.LBE4:
 401              		.loc 1 267 7 discriminator 3 view .LVU102
 268:Drivers/STM32G4xx_HAL_Driver/Src/stm32g4xx_ll_usb.c **** 
 269:Drivers/STM32G4xx_HAL_Driver/Src/stm32g4xx_ll_usb.c ****       if (ep->type != EP_TYPE_ISOC)
 402              		.loc 1 269 7 discriminator 3 view .LVU103
 403              		.loc 1 269 13 is_stmt 0 discriminator 3 view .LVU104
 404 00a8 CA78     		ldrb	r2, [r1, #3]	@ zero_extendqisi2
 405              		.loc 1 269 10 discriminator 3 view .LVU105
 406 00aa 012A     		cmp	r2, #1
 407 00ac 1DD0     		beq	.L20
 270:Drivers/STM32G4xx_HAL_Driver/Src/stm32g4xx_ll_usb.c ****       {
 271:Drivers/STM32G4xx_HAL_Driver/Src/stm32g4xx_ll_usb.c ****         /* Configure NAK status for the Endpoint */
 272:Drivers/STM32G4xx_HAL_Driver/Src/stm32g4xx_ll_usb.c ****         PCD_SET_EP_TX_STATUS(USBx, ep->num, USB_EP_TX_NAK);
 408              		.loc 1 272 9 is_stmt 1 view .LVU106
 409              	.LBB6:
 410              		.loc 1 272 9 view .LVU107
 411              		.loc 1 272 9 view .LVU108
 412 00ae 0978     		ldrb	r1, [r1]	@ zero_extendqisi2
 413              	.LVL30:
 414              		.loc 1 272 9 is_stmt 0 view .LVU109
 415 00b0 33F82120 		ldrh	r2, [r3, r1, lsl #2]
 416 00b4 92B2     		uxth	r2, r2
 417 00b6 22F4E042 		bic	r2, r2, #28672
 418 00ba 22F04002 		bic	r2, r2, #64
 419              	.LVL31:
 420              		.loc 1 272 9 is_stmt 1 view .LVU110
 421              		.loc 1 272 9 view .LVU111
 422              		.loc 1 272 9 view .LVU112
 423 00be 82F02002 		eor	r2, r2, #32
 424              	.LVL32:
 425              		.loc 1 272 9 view .LVU113
 426 00c2 42F40042 		orr	r2, r2, #32768
 427              	.LVL33:
ARM GAS  /tmp/cc98KGWN.s 			page 13


 428              		.loc 1 272 9 is_stmt 0 view .LVU114
 429 00c6 42F08002 		orr	r2, r2, #128
 430 00ca 23F82120 		strh	r2, [r3, r1, lsl #2]	@ movhi
 431              	.LBE6:
 432              		.loc 1 272 9 is_stmt 1 view .LVU115
 433 00ce C3E1     		b	.L21
 434              	.LVL34:
 435              	.L16:
 237:Drivers/STM32G4xx_HAL_Driver/Src/stm32g4xx_ll_usb.c ****       break;
 436              		.loc 1 237 7 view .LVU116
 237:Drivers/STM32G4xx_HAL_Driver/Src/stm32g4xx_ll_usb.c ****       break;
 437              		.loc 1 237 17 is_stmt 0 view .LVU117
 438 00d0 4CF4007C 		orr	ip, ip, #512
 439              	.LVL35:
 238:Drivers/STM32G4xx_HAL_Driver/Src/stm32g4xx_ll_usb.c **** 
 440              		.loc 1 238 7 is_stmt 1 view .LVU118
 441 00d4 A9E7     		b	.L11
 442              	.L12:
 245:Drivers/STM32G4xx_HAL_Driver/Src/stm32g4xx_ll_usb.c ****       break;
 443              		.loc 1 245 7 view .LVU119
 245:Drivers/STM32G4xx_HAL_Driver/Src/stm32g4xx_ll_usb.c ****       break;
 444              		.loc 1 245 17 is_stmt 0 view .LVU120
 445 00d6 4CF4C06C 		orr	ip, ip, #1536
 446              	.LVL36:
 246:Drivers/STM32G4xx_HAL_Driver/Src/stm32g4xx_ll_usb.c **** 
 447              		.loc 1 246 7 is_stmt 1 view .LVU121
 228:Drivers/STM32G4xx_HAL_Driver/Src/stm32g4xx_ll_usb.c ****   uint16_t wEpRegVal;
 448              		.loc 1 228 21 is_stmt 0 view .LVU122
 449 00da 0020     		movs	r0, #0
 246:Drivers/STM32G4xx_HAL_Driver/Src/stm32g4xx_ll_usb.c **** 
 450              		.loc 1 246 7 view .LVU123
 451 00dc A5E7     		b	.L11
 452              	.L15:
 249:Drivers/STM32G4xx_HAL_Driver/Src/stm32g4xx_ll_usb.c ****       break;
 453              		.loc 1 249 7 is_stmt 1 view .LVU124
 249:Drivers/STM32G4xx_HAL_Driver/Src/stm32g4xx_ll_usb.c ****       break;
 454              		.loc 1 249 17 is_stmt 0 view .LVU125
 455 00de 4CF4806C 		orr	ip, ip, #1024
 456              	.LVL37:
 250:Drivers/STM32G4xx_HAL_Driver/Src/stm32g4xx_ll_usb.c **** 
 457              		.loc 1 250 7 is_stmt 1 view .LVU126
 228:Drivers/STM32G4xx_HAL_Driver/Src/stm32g4xx_ll_usb.c ****   uint16_t wEpRegVal;
 458              		.loc 1 228 21 is_stmt 0 view .LVU127
 459 00e2 0020     		movs	r0, #0
 250:Drivers/STM32G4xx_HAL_Driver/Src/stm32g4xx_ll_usb.c **** 
 460              		.loc 1 250 7 view .LVU128
 461 00e4 A1E7     		b	.L11
 462              	.L50:
 253:Drivers/STM32G4xx_HAL_Driver/Src/stm32g4xx_ll_usb.c ****       break;
 463              		.loc 1 253 11 view .LVU129
 464 00e6 0120     		movs	r0, #1
 465 00e8 9FE7     		b	.L11
 466              	.LVL38:
 467              	.L20:
 273:Drivers/STM32G4xx_HAL_Driver/Src/stm32g4xx_ll_usb.c ****       }
 274:Drivers/STM32G4xx_HAL_Driver/Src/stm32g4xx_ll_usb.c ****       else
 275:Drivers/STM32G4xx_HAL_Driver/Src/stm32g4xx_ll_usb.c ****       {
ARM GAS  /tmp/cc98KGWN.s 			page 14


 276:Drivers/STM32G4xx_HAL_Driver/Src/stm32g4xx_ll_usb.c ****         /* Configure TX Endpoint to disabled state */
 277:Drivers/STM32G4xx_HAL_Driver/Src/stm32g4xx_ll_usb.c ****         PCD_SET_EP_TX_STATUS(USBx, ep->num, USB_EP_TX_DIS);
 468              		.loc 1 277 9 is_stmt 1 view .LVU130
 469              	.LBB7:
 470              		.loc 1 277 9 view .LVU131
 471              		.loc 1 277 9 view .LVU132
 472 00ea 0978     		ldrb	r1, [r1]	@ zero_extendqisi2
 473              	.LVL39:
 474              		.loc 1 277 9 is_stmt 0 view .LVU133
 475 00ec 33F82120 		ldrh	r2, [r3, r1, lsl #2]
 476 00f0 92B2     		uxth	r2, r2
 477 00f2 22F4E042 		bic	r2, r2, #28672
 478 00f6 22F04002 		bic	r2, r2, #64
 479              	.LVL40:
 480              		.loc 1 277 9 is_stmt 1 view .LVU134
 481              		.loc 1 277 9 view .LVU135
 482              		.loc 1 277 9 view .LVU136
 483 00fa 42F40042 		orr	r2, r2, #32768
 484              	.LVL41:
 485              		.loc 1 277 9 is_stmt 0 view .LVU137
 486 00fe 42F08002 		orr	r2, r2, #128
 487 0102 23F82120 		strh	r2, [r3, r1, lsl #2]	@ movhi
 488 0106 A7E1     		b	.L21
 489              	.LVL42:
 490              	.L18:
 491              		.loc 1 277 9 view .LVU138
 492              	.LBE7:
 278:Drivers/STM32G4xx_HAL_Driver/Src/stm32g4xx_ll_usb.c ****       }
 279:Drivers/STM32G4xx_HAL_Driver/Src/stm32g4xx_ll_usb.c ****     }
 280:Drivers/STM32G4xx_HAL_Driver/Src/stm32g4xx_ll_usb.c ****     else
 281:Drivers/STM32G4xx_HAL_Driver/Src/stm32g4xx_ll_usb.c ****     {
 282:Drivers/STM32G4xx_HAL_Driver/Src/stm32g4xx_ll_usb.c ****       /* Set the endpoint Receive buffer address */
 283:Drivers/STM32G4xx_HAL_Driver/Src/stm32g4xx_ll_usb.c ****       PCD_SET_EP_RX_ADDRESS(USBx, ep->num, ep->pmaadress);
 493              		.loc 1 283 7 is_stmt 1 view .LVU139
 494              	.LBB8:
 495              		.loc 1 283 7 view .LVU140
 496              		.loc 1 283 7 view .LVU141
 497              		.loc 1 283 7 view .LVU142
 498 0108 B3F85020 		ldrh	r2, [r3, #80]
 499 010c 13FA82F2 		uxtah	r2, r3, r2
 500              	.LVL43:
 501              		.loc 1 283 7 view .LVU143
 502 0110 0C78     		ldrb	r4, [r1]	@ zero_extendqisi2
 503 0112 02EBC402 		add	r2, r2, r4, lsl #3
 504              	.LVL44:
 505              		.loc 1 283 7 view .LVU144
 506 0116 B1F806C0 		ldrh	ip, [r1, #6]
 507              		.loc 1 283 7 is_stmt 0 view .LVU145
 508 011a 4FEA5C0C 		lsr	ip, ip, #1
 509 011e 4FEA4C0C 		lsl	ip, ip, #1
 510 0122 A2F804C4 		strh	ip, [r2, #1028]	@ movhi
 511              	.LBE8:
 512              		.loc 1 283 7 is_stmt 1 view .LVU146
 284:Drivers/STM32G4xx_HAL_Driver/Src/stm32g4xx_ll_usb.c **** 
 285:Drivers/STM32G4xx_HAL_Driver/Src/stm32g4xx_ll_usb.c ****       /* Set the endpoint Receive buffer counter */
 286:Drivers/STM32G4xx_HAL_Driver/Src/stm32g4xx_ll_usb.c ****       PCD_SET_EP_RX_CNT(USBx, ep->num, ep->maxpacket);
 513              		.loc 1 286 7 view .LVU147
ARM GAS  /tmp/cc98KGWN.s 			page 15


 514              	.LBB9:
 515              		.loc 1 286 7 view .LVU148
 516              	.LVL45:
 517              		.loc 1 286 7 view .LVU149
 518              		.loc 1 286 7 view .LVU150
 519 0126 B3F85020 		ldrh	r2, [r3, #80]
 520              	.LVL46:
 521              		.loc 1 286 7 is_stmt 0 view .LVU151
 522 012a 13FA82F2 		uxtah	r2, r3, r2
 523              	.LVL47:
 524              		.loc 1 286 7 is_stmt 1 view .LVU152
 525 012e 0C78     		ldrb	r4, [r1]	@ zero_extendqisi2
 526              		.loc 1 286 7 is_stmt 0 view .LVU153
 527 0130 02EBC402 		add	r2, r2, r4, lsl #3
 528              	.LVL48:
 529              		.loc 1 286 7 is_stmt 1 view .LVU154
 530              	.LBB10:
 531              		.loc 1 286 7 view .LVU155
 532              		.loc 1 286 7 view .LVU156
 533 0134 B2F806C4 		ldrh	ip, [r2, #1030]
 534 0138 CCF3090C 		ubfx	ip, ip, #0, #10
 535 013c A2F806C4 		strh	ip, [r2, #1030]	@ movhi
 536              		.loc 1 286 7 view .LVU157
 537 0140 0C69     		ldr	r4, [r1, #16]
 538 0142 74BB     		cbnz	r4, .L22
 539              		.loc 1 286 7 discriminator 1 view .LVU158
 540 0144 B2F806C4 		ldrh	ip, [r2, #1030]
 541 0148 6FEA4C4C 		mvn	ip, ip, lsl #17
 542 014c 6FEA5C4C 		mvn	ip, ip, lsr #17
 543 0150 1FFA8CFC 		uxth	ip, ip
 544 0154 A2F806C4 		strh	ip, [r2, #1030]	@ movhi
 545              	.L23:
 546              		.loc 1 286 7 discriminator 13 view .LVU159
 547              	.LBE10:
 548              		.loc 1 286 7 discriminator 13 view .LVU160
 549              	.LBE9:
 550              		.loc 1 286 7 discriminator 13 view .LVU161
 287:Drivers/STM32G4xx_HAL_Driver/Src/stm32g4xx_ll_usb.c ****       PCD_CLEAR_RX_DTOG(USBx, ep->num);
 551              		.loc 1 287 7 discriminator 13 view .LVU162
 552              	.LBB12:
 553              		.loc 1 287 7 discriminator 13 view .LVU163
 554              		.loc 1 287 7 discriminator 13 view .LVU164
 555 0158 0C78     		ldrb	r4, [r1]	@ zero_extendqisi2
 556 015a 33F82420 		ldrh	r2, [r3, r4, lsl #2]
 557              	.LVL49:
 558              		.loc 1 287 7 discriminator 13 view .LVU165
 559 015e 12F4804F 		tst	r2, #16384
 560 0162 0CD0     		beq	.L27
 561              		.loc 1 287 7 discriminator 1 view .LVU166
 562              	.LBB13:
 563              		.loc 1 287 7 discriminator 1 view .LVU167
 564              		.loc 1 287 7 discriminator 1 view .LVU168
 565 0164 33F82420 		ldrh	r2, [r3, r4, lsl #2]
 566              	.LVL50:
 567              		.loc 1 287 7 is_stmt 0 discriminator 1 view .LVU169
 568 0168 92B2     		uxth	r2, r2
 569 016a 22F4E042 		bic	r2, r2, #28672
ARM GAS  /tmp/cc98KGWN.s 			page 16


 570 016e 22F07002 		bic	r2, r2, #112
 571              	.LVL51:
 572              		.loc 1 287 7 is_stmt 1 discriminator 1 view .LVU170
 573 0172 42F44042 		orr	r2, r2, #49152
 574              	.LVL52:
 575              		.loc 1 287 7 is_stmt 0 discriminator 1 view .LVU171
 576 0176 42F08002 		orr	r2, r2, #128
 577 017a 23F82420 		strh	r2, [r3, r4, lsl #2]	@ movhi
 578              	.L27:
 579              		.loc 1 287 7 discriminator 1 view .LVU172
 580              	.LBE13:
 581              		.loc 1 287 7 is_stmt 1 discriminator 3 view .LVU173
 582              	.LBE12:
 583              		.loc 1 287 7 discriminator 3 view .LVU174
 288:Drivers/STM32G4xx_HAL_Driver/Src/stm32g4xx_ll_usb.c **** 
 289:Drivers/STM32G4xx_HAL_Driver/Src/stm32g4xx_ll_usb.c ****       if (ep->num == 0U)
 584              		.loc 1 289 7 discriminator 3 view .LVU175
 585              		.loc 1 289 13 is_stmt 0 discriminator 3 view .LVU176
 586 017e 0978     		ldrb	r1, [r1]	@ zero_extendqisi2
 587              	.LVL53:
 588              		.loc 1 289 10 discriminator 3 view .LVU177
 589 0180 C9BB     		cbnz	r1, .L28
 290:Drivers/STM32G4xx_HAL_Driver/Src/stm32g4xx_ll_usb.c ****       {
 291:Drivers/STM32G4xx_HAL_Driver/Src/stm32g4xx_ll_usb.c ****         /* Configure VALID status for EP0 */
 292:Drivers/STM32G4xx_HAL_Driver/Src/stm32g4xx_ll_usb.c ****         PCD_SET_EP_RX_STATUS(USBx, ep->num, USB_EP_RX_VALID);
 590              		.loc 1 292 9 is_stmt 1 view .LVU178
 591              	.LBB14:
 592              		.loc 1 292 9 view .LVU179
 593              		.loc 1 292 9 view .LVU180
 594 0182 33F82120 		ldrh	r2, [r3, r1, lsl #2]
 595 0186 92B2     		uxth	r2, r2
 596 0188 22F48042 		bic	r2, r2, #16384
 597 018c 22F07002 		bic	r2, r2, #112
 598              	.LVL54:
 599              		.loc 1 292 9 view .LVU181
 600              		.loc 1 292 9 view .LVU182
 601              		.loc 1 292 9 view .LVU183
 602              		.loc 1 292 9 view .LVU184
 603 0190 82F44052 		eor	r2, r2, #12288
 604              	.LVL55:
 605              		.loc 1 292 9 view .LVU185
 606 0194 42F40042 		orr	r2, r2, #32768
 607              	.LVL56:
 608              		.loc 1 292 9 is_stmt 0 view .LVU186
 609 0198 42F08002 		orr	r2, r2, #128
 610 019c 23F82120 		strh	r2, [r3, r1, lsl #2]	@ movhi
 611              	.LBE14:
 612              		.loc 1 292 9 is_stmt 1 view .LVU187
 613 01a0 5AE1     		b	.L21
 614              	.LVL57:
 615              	.L22:
 616              	.LBB15:
 617              	.LBB11:
 286:Drivers/STM32G4xx_HAL_Driver/Src/stm32g4xx_ll_usb.c ****       PCD_CLEAR_RX_DTOG(USBx, ep->num);
 618              		.loc 1 286 7 discriminator 2 view .LVU188
 619 01a2 3E2C     		cmp	r4, #62
 620 01a4 12D8     		bhi	.L24
ARM GAS  /tmp/cc98KGWN.s 			page 17


 286:Drivers/STM32G4xx_HAL_Driver/Src/stm32g4xx_ll_usb.c ****       PCD_CLEAR_RX_DTOG(USBx, ep->num);
 621              		.loc 1 286 7 discriminator 4 view .LVU189
 286:Drivers/STM32G4xx_HAL_Driver/Src/stm32g4xx_ll_usb.c ****       PCD_CLEAR_RX_DTOG(USBx, ep->num);
 622              		.loc 1 286 7 discriminator 4 view .LVU190
 623 01a6 4FEA540C 		lsr	ip, r4, #1
 624              	.LVL58:
 286:Drivers/STM32G4xx_HAL_Driver/Src/stm32g4xx_ll_usb.c ****       PCD_CLEAR_RX_DTOG(USBx, ep->num);
 625              		.loc 1 286 7 discriminator 4 view .LVU191
 626 01aa 14F0010F 		tst	r4, #1
 627 01ae 01D0     		beq	.L25
 286:Drivers/STM32G4xx_HAL_Driver/Src/stm32g4xx_ll_usb.c ****       PCD_CLEAR_RX_DTOG(USBx, ep->num);
 628              		.loc 1 286 7 discriminator 6 view .LVU192
 629 01b0 0CF1010C 		add	ip, ip, #1
 630              	.LVL59:
 631              	.L25:
 286:Drivers/STM32G4xx_HAL_Driver/Src/stm32g4xx_ll_usb.c ****       PCD_CLEAR_RX_DTOG(USBx, ep->num);
 632              		.loc 1 286 7 discriminator 8 view .LVU193
 633 01b4 B2F80644 		ldrh	r4, [r2, #1030]
 634 01b8 A4B2     		uxth	r4, r4
 635 01ba 4FEA8C2C 		lsl	ip, ip, #10
 636              	.LVL60:
 286:Drivers/STM32G4xx_HAL_Driver/Src/stm32g4xx_ll_usb.c ****       PCD_CLEAR_RX_DTOG(USBx, ep->num);
 637              		.loc 1 286 7 is_stmt 0 discriminator 8 view .LVU194
 638 01be 1FFA8CFC 		uxth	ip, ip
 639 01c2 44EA0C0C 		orr	ip, r4, ip
 640 01c6 A2F806C4 		strh	ip, [r2, #1030]	@ movhi
 286:Drivers/STM32G4xx_HAL_Driver/Src/stm32g4xx_ll_usb.c ****       PCD_CLEAR_RX_DTOG(USBx, ep->num);
 641              		.loc 1 286 7 is_stmt 1 discriminator 8 view .LVU195
 642 01ca C5E7     		b	.L23
 643              	.L24:
 286:Drivers/STM32G4xx_HAL_Driver/Src/stm32g4xx_ll_usb.c ****       PCD_CLEAR_RX_DTOG(USBx, ep->num);
 644              		.loc 1 286 7 discriminator 5 view .LVU196
 286:Drivers/STM32G4xx_HAL_Driver/Src/stm32g4xx_ll_usb.c ****       PCD_CLEAR_RX_DTOG(USBx, ep->num);
 645              		.loc 1 286 7 discriminator 5 view .LVU197
 646 01cc 4FEA541C 		lsr	ip, r4, #5
 647              	.LVL61:
 286:Drivers/STM32G4xx_HAL_Driver/Src/stm32g4xx_ll_usb.c ****       PCD_CLEAR_RX_DTOG(USBx, ep->num);
 648              		.loc 1 286 7 discriminator 5 view .LVU198
 649 01d0 14F01F0F 		tst	r4, #31
 650 01d4 01D1     		bne	.L26
 286:Drivers/STM32G4xx_HAL_Driver/Src/stm32g4xx_ll_usb.c ****       PCD_CLEAR_RX_DTOG(USBx, ep->num);
 651              		.loc 1 286 7 discriminator 10 view .LVU199
 652 01d6 0CF1FF3C 		add	ip, ip, #-1
 653              	.LVL62:
 654              	.L26:
 286:Drivers/STM32G4xx_HAL_Driver/Src/stm32g4xx_ll_usb.c ****       PCD_CLEAR_RX_DTOG(USBx, ep->num);
 655              		.loc 1 286 7 discriminator 12 view .LVU200
 656 01da B2F80644 		ldrh	r4, [r2, #1030]
 657 01de A4B2     		uxth	r4, r4
 658 01e0 4FEA8C2C 		lsl	ip, ip, #10
 659              	.LVL63:
 286:Drivers/STM32G4xx_HAL_Driver/Src/stm32g4xx_ll_usb.c ****       PCD_CLEAR_RX_DTOG(USBx, ep->num);
 660              		.loc 1 286 7 is_stmt 0 discriminator 12 view .LVU201
 661 01e4 1FFA8CFC 		uxth	ip, ip
 662 01e8 44EA0C04 		orr	r4, r4, ip
 663 01ec 44F40044 		orr	r4, r4, #32768
 664 01f0 A2F80644 		strh	r4, [r2, #1030]	@ movhi
ARM GAS  /tmp/cc98KGWN.s 			page 18


 665 01f4 B0E7     		b	.L23
 666              	.LVL64:
 667              	.L28:
 286:Drivers/STM32G4xx_HAL_Driver/Src/stm32g4xx_ll_usb.c ****       PCD_CLEAR_RX_DTOG(USBx, ep->num);
 668              		.loc 1 286 7 discriminator 12 view .LVU202
 669              	.LBE11:
 670              	.LBE15:
 293:Drivers/STM32G4xx_HAL_Driver/Src/stm32g4xx_ll_usb.c ****       }
 294:Drivers/STM32G4xx_HAL_Driver/Src/stm32g4xx_ll_usb.c ****       else
 295:Drivers/STM32G4xx_HAL_Driver/Src/stm32g4xx_ll_usb.c ****       {
 296:Drivers/STM32G4xx_HAL_Driver/Src/stm32g4xx_ll_usb.c ****         /* Configure NAK status for OUT Endpoint */
 297:Drivers/STM32G4xx_HAL_Driver/Src/stm32g4xx_ll_usb.c ****         PCD_SET_EP_RX_STATUS(USBx, ep->num, USB_EP_RX_NAK);
 671              		.loc 1 297 9 is_stmt 1 view .LVU203
 672              	.LBB16:
 673              		.loc 1 297 9 view .LVU204
 674              		.loc 1 297 9 view .LVU205
 675 01f6 33F82120 		ldrh	r2, [r3, r1, lsl #2]
 676 01fa 92B2     		uxth	r2, r2
 677 01fc 22F48042 		bic	r2, r2, #16384
 678 0200 22F07002 		bic	r2, r2, #112
 679              	.LVL65:
 680              		.loc 1 297 9 view .LVU206
 681              		.loc 1 297 9 view .LVU207
 682              		.loc 1 297 9 view .LVU208
 683 0204 82F40052 		eor	r2, r2, #8192
 684              	.LVL66:
 685              		.loc 1 297 9 view .LVU209
 686 0208 42F40042 		orr	r2, r2, #32768
 687              	.LVL67:
 688              		.loc 1 297 9 is_stmt 0 view .LVU210
 689 020c 42F08002 		orr	r2, r2, #128
 690 0210 23F82120 		strh	r2, [r3, r1, lsl #2]	@ movhi
 691 0214 20E1     		b	.L21
 692              	.LVL68:
 693              	.L17:
 694              		.loc 1 297 9 view .LVU211
 695              	.LBE16:
 298:Drivers/STM32G4xx_HAL_Driver/Src/stm32g4xx_ll_usb.c ****       }
 299:Drivers/STM32G4xx_HAL_Driver/Src/stm32g4xx_ll_usb.c ****     }
 300:Drivers/STM32G4xx_HAL_Driver/Src/stm32g4xx_ll_usb.c ****   }
 301:Drivers/STM32G4xx_HAL_Driver/Src/stm32g4xx_ll_usb.c **** #if (USE_USB_DOUBLE_BUFFER == 1U)
 302:Drivers/STM32G4xx_HAL_Driver/Src/stm32g4xx_ll_usb.c ****   /* Double Buffer */
 303:Drivers/STM32G4xx_HAL_Driver/Src/stm32g4xx_ll_usb.c ****   else
 304:Drivers/STM32G4xx_HAL_Driver/Src/stm32g4xx_ll_usb.c ****   {
 305:Drivers/STM32G4xx_HAL_Driver/Src/stm32g4xx_ll_usb.c ****     if (ep->type == EP_TYPE_BULK)
 696              		.loc 1 305 5 is_stmt 1 view .LVU212
 697              		.loc 1 305 11 is_stmt 0 view .LVU213
 698 0216 CA78     		ldrb	r2, [r1, #3]	@ zero_extendqisi2
 699              		.loc 1 305 8 view .LVU214
 700 0218 022A     		cmp	r2, #2
 701 021a 74D0     		beq	.L52
 306:Drivers/STM32G4xx_HAL_Driver/Src/stm32g4xx_ll_usb.c ****     {
 307:Drivers/STM32G4xx_HAL_Driver/Src/stm32g4xx_ll_usb.c ****       /* Set bulk endpoint as double buffered */
 308:Drivers/STM32G4xx_HAL_Driver/Src/stm32g4xx_ll_usb.c ****       PCD_SET_BULK_EP_DBUF(USBx, ep->num);
 309:Drivers/STM32G4xx_HAL_Driver/Src/stm32g4xx_ll_usb.c ****     }
 310:Drivers/STM32G4xx_HAL_Driver/Src/stm32g4xx_ll_usb.c ****     else
 311:Drivers/STM32G4xx_HAL_Driver/Src/stm32g4xx_ll_usb.c ****     {
ARM GAS  /tmp/cc98KGWN.s 			page 19


 312:Drivers/STM32G4xx_HAL_Driver/Src/stm32g4xx_ll_usb.c ****       /* Set the ISOC endpoint in double buffer mode */
 313:Drivers/STM32G4xx_HAL_Driver/Src/stm32g4xx_ll_usb.c ****       PCD_CLEAR_EP_KIND(USBx, ep->num);
 702              		.loc 1 313 7 is_stmt 1 view .LVU215
 703              	.LBB17:
 704              		.loc 1 313 7 view .LVU216
 705              		.loc 1 313 7 view .LVU217
 706 021c 91F800C0 		ldrb	ip, [r1]	@ zero_extendqisi2
 707              		.loc 1 313 7 is_stmt 0 view .LVU218
 708 0220 33F82C20 		ldrh	r2, [r3, ip, lsl #2]
 709 0224 92B2     		uxth	r2, r2
 710 0226 22F4E242 		bic	r2, r2, #28928
 711 022a 22F07002 		bic	r2, r2, #112
 712              	.LVL69:
 713              		.loc 1 313 7 is_stmt 1 view .LVU219
 714 022e 42F40042 		orr	r2, r2, #32768
 715              	.LVL70:
 716              		.loc 1 313 7 is_stmt 0 view .LVU220
 717 0232 42F08002 		orr	r2, r2, #128
 718 0236 23F82C20 		strh	r2, [r3, ip, lsl #2]	@ movhi
 719              	.L30:
 720              		.loc 1 313 7 view .LVU221
 721              	.LBE17:
 722              		.loc 1 313 7 is_stmt 1 discriminator 1 view .LVU222
 314:Drivers/STM32G4xx_HAL_Driver/Src/stm32g4xx_ll_usb.c ****     }
 315:Drivers/STM32G4xx_HAL_Driver/Src/stm32g4xx_ll_usb.c **** 
 316:Drivers/STM32G4xx_HAL_Driver/Src/stm32g4xx_ll_usb.c ****     /* Set buffer address for double buffered mode */
 317:Drivers/STM32G4xx_HAL_Driver/Src/stm32g4xx_ll_usb.c ****     PCD_SET_EP_DBUF_ADDR(USBx, ep->num, ep->pmaaddr0, ep->pmaaddr1);
 723              		.loc 1 317 5 discriminator 1 view .LVU223
 724              		.loc 1 317 5 discriminator 1 view .LVU224
 725              		.loc 1 317 5 discriminator 1 view .LVU225
 726              	.LBB18:
 727              		.loc 1 317 5 discriminator 1 view .LVU226
 728              		.loc 1 317 5 discriminator 1 view .LVU227
 729              	.LVL71:
 730              		.loc 1 317 5 discriminator 1 view .LVU228
 731 023a B3F85020 		ldrh	r2, [r3, #80]
 732 023e 13FA82F2 		uxtah	r2, r3, r2
 733              	.LVL72:
 734              		.loc 1 317 5 discriminator 1 view .LVU229
 735 0242 91F800C0 		ldrb	ip, [r1]	@ zero_extendqisi2
 736 0246 02EBCC02 		add	r2, r2, ip, lsl #3
 737              	.LVL73:
 738              		.loc 1 317 5 discriminator 1 view .LVU230
 739 024a B1F808C0 		ldrh	ip, [r1, #8]
 740 024e 4FEA5C0C 		lsr	ip, ip, #1
 741 0252 4FEA4C0C 		lsl	ip, ip, #1
 742 0256 A2F800C4 		strh	ip, [r2, #1024]	@ movhi
 743              	.LBE18:
 744              		.loc 1 317 5 discriminator 1 view .LVU231
 745              		.loc 1 317 5 discriminator 1 view .LVU232
 746              		.loc 1 317 5 discriminator 1 view .LVU233
 747              		.loc 1 317 5 discriminator 1 view .LVU234
 748              	.LBB19:
 749              		.loc 1 317 5 discriminator 1 view .LVU235
 750              		.loc 1 317 5 discriminator 1 view .LVU236
 751              	.LVL74:
 752              		.loc 1 317 5 discriminator 1 view .LVU237
ARM GAS  /tmp/cc98KGWN.s 			page 20


 753 025a B3F85020 		ldrh	r2, [r3, #80]
 754              	.LVL75:
 755              		.loc 1 317 5 is_stmt 0 discriminator 1 view .LVU238
 756 025e 13FA82F2 		uxtah	r2, r3, r2
 757              	.LVL76:
 758              		.loc 1 317 5 is_stmt 1 discriminator 1 view .LVU239
 759 0262 91F800C0 		ldrb	ip, [r1]	@ zero_extendqisi2
 760 0266 02EBCC02 		add	r2, r2, ip, lsl #3
 761              	.LVL77:
 762              		.loc 1 317 5 discriminator 1 view .LVU240
 763 026a B1F80AC0 		ldrh	ip, [r1, #10]
 764 026e 4FEA5C0C 		lsr	ip, ip, #1
 765 0272 4FEA4C0C 		lsl	ip, ip, #1
 766 0276 A2F804C4 		strh	ip, [r2, #1028]	@ movhi
 767              	.LBE19:
 768              		.loc 1 317 5 discriminator 1 view .LVU241
 769              		.loc 1 317 5 discriminator 1 view .LVU242
 770              		.loc 1 317 5 discriminator 1 view .LVU243
 318:Drivers/STM32G4xx_HAL_Driver/Src/stm32g4xx_ll_usb.c **** 
 319:Drivers/STM32G4xx_HAL_Driver/Src/stm32g4xx_ll_usb.c ****     if (ep->is_in == 0U)
 771              		.loc 1 319 5 discriminator 1 view .LVU244
 772              		.loc 1 319 11 is_stmt 0 discriminator 1 view .LVU245
 773 027a 4A78     		ldrb	r2, [r1, #1]	@ zero_extendqisi2
 774              	.LVL78:
 775              		.loc 1 319 8 discriminator 1 view .LVU246
 776 027c 002A     		cmp	r2, #0
 777 027e 40F0F780 		bne	.L31
 320:Drivers/STM32G4xx_HAL_Driver/Src/stm32g4xx_ll_usb.c ****     {
 321:Drivers/STM32G4xx_HAL_Driver/Src/stm32g4xx_ll_usb.c ****       /* Clear the data toggle bits for the endpoint IN/OUT */
 322:Drivers/STM32G4xx_HAL_Driver/Src/stm32g4xx_ll_usb.c ****       PCD_CLEAR_RX_DTOG(USBx, ep->num);
 778              		.loc 1 322 7 is_stmt 1 view .LVU247
 779              	.LBB20:
 780              		.loc 1 322 7 view .LVU248
 781              		.loc 1 322 7 view .LVU249
 782 0282 0C78     		ldrb	r4, [r1]	@ zero_extendqisi2
 783 0284 33F82420 		ldrh	r2, [r3, r4, lsl #2]
 784              	.LVL79:
 785              		.loc 1 322 7 view .LVU250
 786 0288 12F4804F 		tst	r2, #16384
 787 028c 0CD0     		beq	.L32
 788              		.loc 1 322 7 discriminator 1 view .LVU251
 789              	.LBB21:
 790              		.loc 1 322 7 discriminator 1 view .LVU252
 791              		.loc 1 322 7 discriminator 1 view .LVU253
 792 028e 33F82420 		ldrh	r2, [r3, r4, lsl #2]
 793              	.LVL80:
 794              		.loc 1 322 7 is_stmt 0 discriminator 1 view .LVU254
 795 0292 92B2     		uxth	r2, r2
 796 0294 22F4E042 		bic	r2, r2, #28672
 797 0298 22F07002 		bic	r2, r2, #112
 798              	.LVL81:
 799              		.loc 1 322 7 is_stmt 1 discriminator 1 view .LVU255
 800 029c 42F44042 		orr	r2, r2, #49152
 801              	.LVL82:
 802              		.loc 1 322 7 is_stmt 0 discriminator 1 view .LVU256
 803 02a0 42F08002 		orr	r2, r2, #128
 804 02a4 23F82420 		strh	r2, [r3, r4, lsl #2]	@ movhi
ARM GAS  /tmp/cc98KGWN.s 			page 21


 805              	.L32:
 806              		.loc 1 322 7 discriminator 1 view .LVU257
 807              	.LBE21:
 808              		.loc 1 322 7 is_stmt 1 discriminator 3 view .LVU258
 809              	.LBE20:
 810              		.loc 1 322 7 discriminator 3 view .LVU259
 323:Drivers/STM32G4xx_HAL_Driver/Src/stm32g4xx_ll_usb.c ****       PCD_CLEAR_TX_DTOG(USBx, ep->num);
 811              		.loc 1 323 7 discriminator 3 view .LVU260
 812              	.LBB22:
 813              		.loc 1 323 7 discriminator 3 view .LVU261
 814              		.loc 1 323 7 discriminator 3 view .LVU262
 815 02a8 0C78     		ldrb	r4, [r1]	@ zero_extendqisi2
 816 02aa 33F82420 		ldrh	r2, [r3, r4, lsl #2]
 817              	.LVL83:
 818              		.loc 1 323 7 discriminator 3 view .LVU263
 819 02ae 12F0400F 		tst	r2, #64
 820 02b2 0CD0     		beq	.L33
 821              		.loc 1 323 7 discriminator 1 view .LVU264
 822              	.LBB23:
 823              		.loc 1 323 7 discriminator 1 view .LVU265
 824              		.loc 1 323 7 discriminator 1 view .LVU266
 825 02b4 33F82420 		ldrh	r2, [r3, r4, lsl #2]
 826              	.LVL84:
 827              		.loc 1 323 7 is_stmt 0 discriminator 1 view .LVU267
 828 02b8 92B2     		uxth	r2, r2
 829 02ba 22F4E042 		bic	r2, r2, #28672
 830 02be 22F07002 		bic	r2, r2, #112
 831              	.LVL85:
 832              		.loc 1 323 7 is_stmt 1 discriminator 1 view .LVU268
 833 02c2 42F40042 		orr	r2, r2, #32768
 834              	.LVL86:
 835              		.loc 1 323 7 is_stmt 0 discriminator 1 view .LVU269
 836 02c6 42F0C002 		orr	r2, r2, #192
 837 02ca 23F82420 		strh	r2, [r3, r4, lsl #2]	@ movhi
 838              	.L33:
 839              		.loc 1 323 7 discriminator 1 view .LVU270
 840              	.LBE23:
 841              		.loc 1 323 7 is_stmt 1 discriminator 3 view .LVU271
 842              	.LBE22:
 843              		.loc 1 323 7 discriminator 3 view .LVU272
 324:Drivers/STM32G4xx_HAL_Driver/Src/stm32g4xx_ll_usb.c **** 
 325:Drivers/STM32G4xx_HAL_Driver/Src/stm32g4xx_ll_usb.c ****       /* Set endpoint RX count */
 326:Drivers/STM32G4xx_HAL_Driver/Src/stm32g4xx_ll_usb.c ****       PCD_SET_EP_DBUF_CNT(USBx, ep->num, ep->is_in, ep->maxpacket);
 844              		.loc 1 326 7 discriminator 3 view .LVU273
 845              		.loc 1 326 7 discriminator 3 view .LVU274
 846              		.loc 1 326 7 discriminator 3 view .LVU275
 847 02ce 4A78     		ldrb	r2, [r1, #1]	@ zero_extendqisi2
 848 02d0 002A     		cmp	r2, #0
 849 02d2 51D1     		bne	.L34
 850              		.loc 1 326 7 discriminator 1 view .LVU276
 851              	.LBB24:
 852              		.loc 1 326 7 discriminator 1 view .LVU277
 853              	.LVL87:
 854              		.loc 1 326 7 discriminator 1 view .LVU278
 855              		.loc 1 326 7 discriminator 1 view .LVU279
 856 02d4 B3F85020 		ldrh	r2, [r3, #80]
 857 02d8 13FA82F2 		uxtah	r2, r3, r2
ARM GAS  /tmp/cc98KGWN.s 			page 22


 858              	.LVL88:
 859              		.loc 1 326 7 discriminator 1 view .LVU280
 860 02dc 0C78     		ldrb	r4, [r1]	@ zero_extendqisi2
 861 02de 02EBC402 		add	r2, r2, r4, lsl #3
 862              	.LVL89:
 863              		.loc 1 326 7 discriminator 1 view .LVU281
 864              	.LBB25:
 865              		.loc 1 326 7 discriminator 1 view .LVU282
 866              		.loc 1 326 7 discriminator 1 view .LVU283
 867 02e2 B2F80244 		ldrh	r4, [r2, #1026]
 868 02e6 C4F30904 		ubfx	r4, r4, #0, #10
 869 02ea A2F80244 		strh	r4, [r2, #1026]	@ movhi
 870              		.loc 1 326 7 discriminator 1 view .LVU284
 871 02ee 0C69     		ldr	r4, [r1, #16]
 872 02f0 C4B9     		cbnz	r4, .L35
 873              		.loc 1 326 7 discriminator 3 view .LVU285
 874 02f2 B2F80244 		ldrh	r4, [r2, #1026]
 875 02f6 6FEA4444 		mvn	r4, r4, lsl #17
 876 02fa 6FEA5444 		mvn	r4, r4, lsr #17
 877 02fe A4B2     		uxth	r4, r4
 878 0300 A2F80244 		strh	r4, [r2, #1026]	@ movhi
 879 0304 3AE0     		b	.L36
 880              	.LVL90:
 881              	.L52:
 882              		.loc 1 326 7 is_stmt 0 discriminator 3 view .LVU286
 883              	.LBE25:
 884              	.LBE24:
 308:Drivers/STM32G4xx_HAL_Driver/Src/stm32g4xx_ll_usb.c ****     }
 885              		.loc 1 308 7 is_stmt 1 view .LVU287
 886              	.LBB27:
 308:Drivers/STM32G4xx_HAL_Driver/Src/stm32g4xx_ll_usb.c ****     }
 887              		.loc 1 308 7 view .LVU288
 308:Drivers/STM32G4xx_HAL_Driver/Src/stm32g4xx_ll_usb.c ****     }
 888              		.loc 1 308 7 view .LVU289
 889 0306 0C78     		ldrb	r4, [r1]	@ zero_extendqisi2
 890 0308 33F82420 		ldrh	r2, [r3, r4, lsl #2]
 891 030c 92B2     		uxth	r2, r2
 892 030e 22F4E042 		bic	r2, r2, #28672
 893 0312 22F07002 		bic	r2, r2, #112
 894              	.LVL91:
 308:Drivers/STM32G4xx_HAL_Driver/Src/stm32g4xx_ll_usb.c ****     }
 895              		.loc 1 308 7 view .LVU290
 896 0316 42F40142 		orr	r2, r2, #33024
 897              	.LVL92:
 308:Drivers/STM32G4xx_HAL_Driver/Src/stm32g4xx_ll_usb.c ****     }
 898              		.loc 1 308 7 is_stmt 0 view .LVU291
 899 031a 42F08002 		orr	r2, r2, #128
 900 031e 23F82420 		strh	r2, [r3, r4, lsl #2]	@ movhi
 901              	.LBE27:
 308:Drivers/STM32G4xx_HAL_Driver/Src/stm32g4xx_ll_usb.c ****     }
 902              		.loc 1 308 7 is_stmt 1 view .LVU292
 903 0322 8AE7     		b	.L30
 904              	.LVL93:
 905              	.L35:
 906              	.LBB28:
 907              	.LBB26:
 908              		.loc 1 326 7 discriminator 4 view .LVU293
ARM GAS  /tmp/cc98KGWN.s 			page 23


 909 0324 3E2C     		cmp	r4, #62
 910 0326 12D8     		bhi	.L37
 911              		.loc 1 326 7 discriminator 6 view .LVU294
 912              		.loc 1 326 7 discriminator 6 view .LVU295
 913 0328 4FEA540C 		lsr	ip, r4, #1
 914              	.LVL94:
 915              		.loc 1 326 7 discriminator 6 view .LVU296
 916 032c 14F0010F 		tst	r4, #1
 917 0330 01D0     		beq	.L38
 918              		.loc 1 326 7 discriminator 8 view .LVU297
 919 0332 0CF1010C 		add	ip, ip, #1
 920              	.LVL95:
 921              	.L38:
 922              		.loc 1 326 7 discriminator 10 view .LVU298
 923 0336 B2F80244 		ldrh	r4, [r2, #1026]
 924 033a A4B2     		uxth	r4, r4
 925 033c 4FEA8C2C 		lsl	ip, ip, #10
 926              	.LVL96:
 927              		.loc 1 326 7 is_stmt 0 discriminator 10 view .LVU299
 928 0340 1FFA8CFC 		uxth	ip, ip
 929 0344 44EA0C0C 		orr	ip, r4, ip
 930 0348 A2F802C4 		strh	ip, [r2, #1026]	@ movhi
 931              		.loc 1 326 7 is_stmt 1 discriminator 10 view .LVU300
 932 034c 16E0     		b	.L36
 933              	.L37:
 934              		.loc 1 326 7 discriminator 7 view .LVU301
 935              		.loc 1 326 7 discriminator 7 view .LVU302
 936 034e 4FEA541C 		lsr	ip, r4, #5
 937              	.LVL97:
 938              		.loc 1 326 7 discriminator 7 view .LVU303
 939 0352 14F01F0F 		tst	r4, #31
 940 0356 01D1     		bne	.L39
 941              		.loc 1 326 7 discriminator 12 view .LVU304
 942 0358 0CF1FF3C 		add	ip, ip, #-1
 943              	.LVL98:
 944              	.L39:
 945              		.loc 1 326 7 discriminator 14 view .LVU305
 946 035c B2F80244 		ldrh	r4, [r2, #1026]
 947 0360 A4B2     		uxth	r4, r4
 948 0362 4FEA8C2C 		lsl	ip, ip, #10
 949              	.LVL99:
 950              		.loc 1 326 7 is_stmt 0 discriminator 14 view .LVU306
 951 0366 1FFA8CFC 		uxth	ip, ip
 952 036a 44EA0C04 		orr	r4, r4, ip
 953 036e 44F40044 		orr	r4, r4, #32768
 954 0372 A2F80244 		strh	r4, [r2, #1026]	@ movhi
 955 0376 01E0     		b	.L36
 956              	.LVL100:
 957              	.L34:
 958              		.loc 1 326 7 discriminator 14 view .LVU307
 959              	.LBE26:
 960              	.LBE28:
 961              		.loc 1 326 7 is_stmt 1 discriminator 2 view .LVU308
 962 0378 012A     		cmp	r2, #1
 963 037a 1BD0     		beq	.L53
 964              	.L36:
 965              		.loc 1 326 7 discriminator 18 view .LVU309
ARM GAS  /tmp/cc98KGWN.s 			page 24


 966              		.loc 1 326 7 discriminator 18 view .LVU310
 967              		.loc 1 326 7 discriminator 18 view .LVU311
 968              	.LBB29:
 969              		.loc 1 326 7 discriminator 18 view .LVU312
 970              	.LVL101:
 971              		.loc 1 326 7 discriminator 18 view .LVU313
 972              		.loc 1 326 7 discriminator 18 view .LVU314
 973 037c 4A78     		ldrb	r2, [r1, #1]	@ zero_extendqisi2
 974 037e 002A     		cmp	r2, #0
 975 0380 4DD1     		bne	.L40
 976              		.loc 1 326 7 discriminator 19 view .LVU315
 977              	.LBB30:
 978              		.loc 1 326 7 discriminator 19 view .LVU316
 979              	.LVL102:
 980              		.loc 1 326 7 discriminator 19 view .LVU317
 981              		.loc 1 326 7 discriminator 19 view .LVU318
 982 0382 B3F85020 		ldrh	r2, [r3, #80]
 983 0386 13FA82F2 		uxtah	r2, r3, r2
 984              	.LVL103:
 985              		.loc 1 326 7 discriminator 19 view .LVU319
 986 038a 0C78     		ldrb	r4, [r1]	@ zero_extendqisi2
 987 038c 02EBC402 		add	r2, r2, r4, lsl #3
 988              	.LVL104:
 989              		.loc 1 326 7 discriminator 19 view .LVU320
 990              	.LBB31:
 991              		.loc 1 326 7 discriminator 19 view .LVU321
 992              		.loc 1 326 7 discriminator 19 view .LVU322
 993 0390 B2F80644 		ldrh	r4, [r2, #1030]
 994 0394 C4F30904 		ubfx	r4, r4, #0, #10
 995 0398 A2F80644 		strh	r4, [r2, #1030]	@ movhi
 996              		.loc 1 326 7 discriminator 19 view .LVU323
 997 039c 0C69     		ldr	r4, [r1, #16]
 998 039e A4B9     		cbnz	r4, .L41
 999              		.loc 1 326 7 discriminator 21 view .LVU324
 1000 03a0 B2F80644 		ldrh	r4, [r2, #1030]
 1001 03a4 6FEA4444 		mvn	r4, r4, lsl #17
 1002 03a8 6FEA5444 		mvn	r4, r4, lsr #17
 1003 03ac A4B2     		uxth	r4, r4
 1004 03ae A2F80644 		strh	r4, [r2, #1030]	@ movhi
 1005 03b2 36E0     		b	.L42
 1006              	.LVL105:
 1007              	.L53:
 1008              		.loc 1 326 7 is_stmt 0 discriminator 21 view .LVU325
 1009              	.LBE31:
 1010              	.LBE30:
 1011              	.LBE29:
 1012              		.loc 1 326 7 is_stmt 1 discriminator 16 view .LVU326
 1013              	.LBB34:
 1014              		.loc 1 326 7 discriminator 16 view .LVU327
 1015              		.loc 1 326 7 discriminator 16 view .LVU328
 1016              		.loc 1 326 7 discriminator 16 view .LVU329
 1017 03b4 B3F85020 		ldrh	r2, [r3, #80]
 1018 03b8 13FA82F2 		uxtah	r2, r3, r2
 1019              	.LVL106:
 1020              		.loc 1 326 7 discriminator 16 view .LVU330
 1021 03bc 0C78     		ldrb	r4, [r1]	@ zero_extendqisi2
 1022 03be 02EBC402 		add	r2, r2, r4, lsl #3
ARM GAS  /tmp/cc98KGWN.s 			page 25


 1023              	.LVL107:
 1024              		.loc 1 326 7 discriminator 16 view .LVU331
 1025 03c2 0C8A     		ldrh	r4, [r1, #16]
 1026 03c4 A2F80244 		strh	r4, [r2, #1026]	@ movhi
 1027 03c8 D8E7     		b	.L36
 1028              	.LVL108:
 1029              	.L41:
 1030              		.loc 1 326 7 is_stmt 0 discriminator 16 view .LVU332
 1031              	.LBE34:
 1032              	.LBB35:
 1033              	.LBB33:
 1034              	.LBB32:
 1035              		.loc 1 326 7 is_stmt 1 discriminator 22 view .LVU333
 1036 03ca 3E2C     		cmp	r4, #62
 1037 03cc 12D8     		bhi	.L43
 1038              		.loc 1 326 7 discriminator 24 view .LVU334
 1039              		.loc 1 326 7 discriminator 24 view .LVU335
 1040 03ce 4FEA540C 		lsr	ip, r4, #1
 1041              	.LVL109:
 1042              		.loc 1 326 7 discriminator 24 view .LVU336
 1043 03d2 14F0010F 		tst	r4, #1
 1044 03d6 01D0     		beq	.L44
 1045              		.loc 1 326 7 discriminator 26 view .LVU337
 1046 03d8 0CF1010C 		add	ip, ip, #1
 1047              	.LVL110:
 1048              	.L44:
 1049              		.loc 1 326 7 discriminator 28 view .LVU338
 1050 03dc B2F80644 		ldrh	r4, [r2, #1030]
 1051 03e0 A4B2     		uxth	r4, r4
 1052 03e2 4FEA8C2C 		lsl	ip, ip, #10
 1053              	.LVL111:
 1054              		.loc 1 326 7 is_stmt 0 discriminator 28 view .LVU339
 1055 03e6 1FFA8CFC 		uxth	ip, ip
 1056 03ea 44EA0C0C 		orr	ip, r4, ip
 1057 03ee A2F806C4 		strh	ip, [r2, #1030]	@ movhi
 1058              		.loc 1 326 7 is_stmt 1 discriminator 28 view .LVU340
 1059 03f2 16E0     		b	.L42
 1060              	.L43:
 1061              		.loc 1 326 7 discriminator 25 view .LVU341
 1062              		.loc 1 326 7 discriminator 25 view .LVU342
 1063 03f4 4FEA541C 		lsr	ip, r4, #5
 1064              	.LVL112:
 1065              		.loc 1 326 7 discriminator 25 view .LVU343
 1066 03f8 14F01F0F 		tst	r4, #31
 1067 03fc 01D1     		bne	.L45
 1068              		.loc 1 326 7 discriminator 30 view .LVU344
 1069 03fe 0CF1FF3C 		add	ip, ip, #-1
 1070              	.LVL113:
 1071              	.L45:
 1072              		.loc 1 326 7 discriminator 32 view .LVU345
 1073 0402 B2F80644 		ldrh	r4, [r2, #1030]
 1074 0406 A4B2     		uxth	r4, r4
 1075 0408 4FEA8C2C 		lsl	ip, ip, #10
 1076              	.LVL114:
 1077              		.loc 1 326 7 is_stmt 0 discriminator 32 view .LVU346
 1078 040c 1FFA8CFC 		uxth	ip, ip
 1079 0410 44EA0C04 		orr	r4, r4, ip
ARM GAS  /tmp/cc98KGWN.s 			page 26


 1080 0414 44F40044 		orr	r4, r4, #32768
 1081 0418 A2F80644 		strh	r4, [r2, #1030]	@ movhi
 1082 041c 01E0     		b	.L42
 1083              	.LVL115:
 1084              	.L40:
 1085              		.loc 1 326 7 discriminator 32 view .LVU347
 1086              	.LBE32:
 1087              	.LBE33:
 1088              		.loc 1 326 7 is_stmt 1 discriminator 20 view .LVU348
 1089 041e 012A     		cmp	r2, #1
 1090 0420 1BD0     		beq	.L54
 1091              	.LVL116:
 1092              	.L42:
 1093              		.loc 1 326 7 is_stmt 0 discriminator 20 view .LVU349
 1094              	.LBE35:
 1095              		.loc 1 326 7 is_stmt 1 discriminator 36 view .LVU350
 1096              		.loc 1 326 7 discriminator 36 view .LVU351
 327:Drivers/STM32G4xx_HAL_Driver/Src/stm32g4xx_ll_usb.c **** 
 328:Drivers/STM32G4xx_HAL_Driver/Src/stm32g4xx_ll_usb.c ****       /* Set endpoint RX to valid state */
 329:Drivers/STM32G4xx_HAL_Driver/Src/stm32g4xx_ll_usb.c ****       PCD_SET_EP_RX_STATUS(USBx, ep->num, USB_EP_RX_VALID);
 1097              		.loc 1 329 7 discriminator 36 view .LVU352
 1098              	.LBB36:
 1099              		.loc 1 329 7 discriminator 36 view .LVU353
 1100              		.loc 1 329 7 discriminator 36 view .LVU354
 1101 0422 91F800C0 		ldrb	ip, [r1]	@ zero_extendqisi2
 1102 0426 33F82C20 		ldrh	r2, [r3, ip, lsl #2]
 1103 042a 92B2     		uxth	r2, r2
 1104 042c 22F48042 		bic	r2, r2, #16384
 1105 0430 22F07002 		bic	r2, r2, #112
 1106              	.LVL117:
 1107              		.loc 1 329 7 discriminator 36 view .LVU355
 1108              		.loc 1 329 7 discriminator 36 view .LVU356
 1109              		.loc 1 329 7 discriminator 36 view .LVU357
 1110              		.loc 1 329 7 discriminator 36 view .LVU358
 1111 0434 82F44052 		eor	r2, r2, #12288
 1112              	.LVL118:
 1113              		.loc 1 329 7 discriminator 36 view .LVU359
 1114 0438 48F28004 		movw	r4, #32896
 1115 043c 2243     		orrs	r2, r2, r4
 1116              	.LVL119:
 1117              		.loc 1 329 7 is_stmt 0 discriminator 36 view .LVU360
 1118 043e 23F82C20 		strh	r2, [r3, ip, lsl #2]	@ movhi
 1119              	.LBE36:
 1120              		.loc 1 329 7 is_stmt 1 discriminator 36 view .LVU361
 330:Drivers/STM32G4xx_HAL_Driver/Src/stm32g4xx_ll_usb.c ****       PCD_SET_EP_TX_STATUS(USBx, ep->num, USB_EP_TX_DIS);
 1121              		.loc 1 330 7 discriminator 36 view .LVU362
 1122              	.LBB37:
 1123              		.loc 1 330 7 discriminator 36 view .LVU363
 1124              		.loc 1 330 7 discriminator 36 view .LVU364
 1125 0442 0978     		ldrb	r1, [r1]	@ zero_extendqisi2
 1126              	.LVL120:
 1127              		.loc 1 330 7 is_stmt 0 discriminator 36 view .LVU365
 1128 0444 33F82120 		ldrh	r2, [r3, r1, lsl #2]
 1129 0448 92B2     		uxth	r2, r2
 1130 044a 22F4E042 		bic	r2, r2, #28672
 1131 044e 22F04002 		bic	r2, r2, #64
 1132              	.LVL121:
ARM GAS  /tmp/cc98KGWN.s 			page 27


 1133              		.loc 1 330 7 is_stmt 1 discriminator 36 view .LVU366
 1134              		.loc 1 330 7 discriminator 36 view .LVU367
 1135              		.loc 1 330 7 discriminator 36 view .LVU368
 1136 0452 2243     		orrs	r2, r2, r4
 1137              	.LVL122:
 1138              		.loc 1 330 7 is_stmt 0 discriminator 36 view .LVU369
 1139 0454 23F82120 		strh	r2, [r3, r1, lsl #2]	@ movhi
 1140              	.LBE37:
 1141              		.loc 1 330 7 is_stmt 1 discriminator 36 view .LVU370
 1142              	.L21:
 331:Drivers/STM32G4xx_HAL_Driver/Src/stm32g4xx_ll_usb.c ****     }
 332:Drivers/STM32G4xx_HAL_Driver/Src/stm32g4xx_ll_usb.c ****     else
 333:Drivers/STM32G4xx_HAL_Driver/Src/stm32g4xx_ll_usb.c ****     {
 334:Drivers/STM32G4xx_HAL_Driver/Src/stm32g4xx_ll_usb.c ****       /* Clear the data toggle bits for the endpoint IN/OUT */
 335:Drivers/STM32G4xx_HAL_Driver/Src/stm32g4xx_ll_usb.c ****       PCD_CLEAR_RX_DTOG(USBx, ep->num);
 336:Drivers/STM32G4xx_HAL_Driver/Src/stm32g4xx_ll_usb.c ****       PCD_CLEAR_TX_DTOG(USBx, ep->num);
 337:Drivers/STM32G4xx_HAL_Driver/Src/stm32g4xx_ll_usb.c **** 
 338:Drivers/STM32G4xx_HAL_Driver/Src/stm32g4xx_ll_usb.c ****       if (ep->type != EP_TYPE_ISOC)
 339:Drivers/STM32G4xx_HAL_Driver/Src/stm32g4xx_ll_usb.c ****       {
 340:Drivers/STM32G4xx_HAL_Driver/Src/stm32g4xx_ll_usb.c ****         /* Configure NAK status for the Endpoint */
 341:Drivers/STM32G4xx_HAL_Driver/Src/stm32g4xx_ll_usb.c ****         PCD_SET_EP_TX_STATUS(USBx, ep->num, USB_EP_TX_NAK);
 342:Drivers/STM32G4xx_HAL_Driver/Src/stm32g4xx_ll_usb.c ****       }
 343:Drivers/STM32G4xx_HAL_Driver/Src/stm32g4xx_ll_usb.c ****       else
 344:Drivers/STM32G4xx_HAL_Driver/Src/stm32g4xx_ll_usb.c ****       {
 345:Drivers/STM32G4xx_HAL_Driver/Src/stm32g4xx_ll_usb.c ****         /* Configure TX Endpoint to disabled state */
 346:Drivers/STM32G4xx_HAL_Driver/Src/stm32g4xx_ll_usb.c ****         PCD_SET_EP_TX_STATUS(USBx, ep->num, USB_EP_TX_DIS);
 347:Drivers/STM32G4xx_HAL_Driver/Src/stm32g4xx_ll_usb.c ****       }
 348:Drivers/STM32G4xx_HAL_Driver/Src/stm32g4xx_ll_usb.c **** 
 349:Drivers/STM32G4xx_HAL_Driver/Src/stm32g4xx_ll_usb.c ****       PCD_SET_EP_RX_STATUS(USBx, ep->num, USB_EP_RX_DIS);
 1143              		.loc 1 349 7 discriminator 7 view .LVU371
 350:Drivers/STM32G4xx_HAL_Driver/Src/stm32g4xx_ll_usb.c ****     }
 351:Drivers/STM32G4xx_HAL_Driver/Src/stm32g4xx_ll_usb.c ****   }
 352:Drivers/STM32G4xx_HAL_Driver/Src/stm32g4xx_ll_usb.c **** #endif /* (USE_USB_DOUBLE_BUFFER == 1U) */
 353:Drivers/STM32G4xx_HAL_Driver/Src/stm32g4xx_ll_usb.c **** 
 354:Drivers/STM32G4xx_HAL_Driver/Src/stm32g4xx_ll_usb.c ****   return ret;
 1144              		.loc 1 354 3 discriminator 7 view .LVU372
 355:Drivers/STM32G4xx_HAL_Driver/Src/stm32g4xx_ll_usb.c **** }
 1145              		.loc 1 355 1 is_stmt 0 discriminator 7 view .LVU373
 1146 0458 10BD     		pop	{r4, pc}
 1147              	.LVL123:
 1148              	.L54:
 1149              	.LBB38:
 326:Drivers/STM32G4xx_HAL_Driver/Src/stm32g4xx_ll_usb.c **** 
 1150              		.loc 1 326 7 is_stmt 1 discriminator 34 view .LVU374
 1151 045a B3F85020 		ldrh	r2, [r3, #80]
 1152 045e 13FA82F2 		uxtah	r2, r3, r2
 1153              	.LVL124:
 326:Drivers/STM32G4xx_HAL_Driver/Src/stm32g4xx_ll_usb.c **** 
 1154              		.loc 1 326 7 discriminator 34 view .LVU375
 1155 0462 0C78     		ldrb	r4, [r1]	@ zero_extendqisi2
 1156 0464 02EBC402 		add	r2, r2, r4, lsl #3
 1157              	.LVL125:
 326:Drivers/STM32G4xx_HAL_Driver/Src/stm32g4xx_ll_usb.c **** 
 1158              		.loc 1 326 7 discriminator 34 view .LVU376
 1159 0468 0C8A     		ldrh	r4, [r1, #16]
 1160 046a A2F80644 		strh	r4, [r2, #1030]	@ movhi
 1161 046e D8E7     		b	.L42
ARM GAS  /tmp/cc98KGWN.s 			page 28


 1162              	.LVL126:
 1163              	.L31:
 326:Drivers/STM32G4xx_HAL_Driver/Src/stm32g4xx_ll_usb.c **** 
 1164              		.loc 1 326 7 is_stmt 0 discriminator 34 view .LVU377
 1165              	.LBE38:
 335:Drivers/STM32G4xx_HAL_Driver/Src/stm32g4xx_ll_usb.c ****       PCD_CLEAR_TX_DTOG(USBx, ep->num);
 1166              		.loc 1 335 7 is_stmt 1 view .LVU378
 1167              	.LBB39:
 335:Drivers/STM32G4xx_HAL_Driver/Src/stm32g4xx_ll_usb.c ****       PCD_CLEAR_TX_DTOG(USBx, ep->num);
 1168              		.loc 1 335 7 view .LVU379
 335:Drivers/STM32G4xx_HAL_Driver/Src/stm32g4xx_ll_usb.c ****       PCD_CLEAR_TX_DTOG(USBx, ep->num);
 1169              		.loc 1 335 7 view .LVU380
 1170 0470 0C78     		ldrb	r4, [r1]	@ zero_extendqisi2
 1171 0472 33F82420 		ldrh	r2, [r3, r4, lsl #2]
 1172              	.LVL127:
 335:Drivers/STM32G4xx_HAL_Driver/Src/stm32g4xx_ll_usb.c ****       PCD_CLEAR_TX_DTOG(USBx, ep->num);
 1173              		.loc 1 335 7 view .LVU381
 1174 0476 12F4804F 		tst	r2, #16384
 1175 047a 0CD0     		beq	.L46
 335:Drivers/STM32G4xx_HAL_Driver/Src/stm32g4xx_ll_usb.c ****       PCD_CLEAR_TX_DTOG(USBx, ep->num);
 1176              		.loc 1 335 7 discriminator 1 view .LVU382
 1177              	.LBB40:
 335:Drivers/STM32G4xx_HAL_Driver/Src/stm32g4xx_ll_usb.c ****       PCD_CLEAR_TX_DTOG(USBx, ep->num);
 1178              		.loc 1 335 7 discriminator 1 view .LVU383
 335:Drivers/STM32G4xx_HAL_Driver/Src/stm32g4xx_ll_usb.c ****       PCD_CLEAR_TX_DTOG(USBx, ep->num);
 1179              		.loc 1 335 7 discriminator 1 view .LVU384
 1180 047c 33F82420 		ldrh	r2, [r3, r4, lsl #2]
 1181              	.LVL128:
 335:Drivers/STM32G4xx_HAL_Driver/Src/stm32g4xx_ll_usb.c ****       PCD_CLEAR_TX_DTOG(USBx, ep->num);
 1182              		.loc 1 335 7 is_stmt 0 discriminator 1 view .LVU385
 1183 0480 92B2     		uxth	r2, r2
 1184 0482 22F4E042 		bic	r2, r2, #28672
 1185 0486 22F07002 		bic	r2, r2, #112
 1186              	.LVL129:
 335:Drivers/STM32G4xx_HAL_Driver/Src/stm32g4xx_ll_usb.c ****       PCD_CLEAR_TX_DTOG(USBx, ep->num);
 1187              		.loc 1 335 7 is_stmt 1 discriminator 1 view .LVU386
 1188 048a 42F44042 		orr	r2, r2, #49152
 1189              	.LVL130:
 335:Drivers/STM32G4xx_HAL_Driver/Src/stm32g4xx_ll_usb.c ****       PCD_CLEAR_TX_DTOG(USBx, ep->num);
 1190              		.loc 1 335 7 is_stmt 0 discriminator 1 view .LVU387
 1191 048e 42F08002 		orr	r2, r2, #128
 1192 0492 23F82420 		strh	r2, [r3, r4, lsl #2]	@ movhi
 1193              	.L46:
 335:Drivers/STM32G4xx_HAL_Driver/Src/stm32g4xx_ll_usb.c ****       PCD_CLEAR_TX_DTOG(USBx, ep->num);
 1194              		.loc 1 335 7 discriminator 1 view .LVU388
 1195              	.LBE40:
 335:Drivers/STM32G4xx_HAL_Driver/Src/stm32g4xx_ll_usb.c ****       PCD_CLEAR_TX_DTOG(USBx, ep->num);
 1196              		.loc 1 335 7 is_stmt 1 discriminator 3 view .LVU389
 1197              	.LBE39:
 335:Drivers/STM32G4xx_HAL_Driver/Src/stm32g4xx_ll_usb.c ****       PCD_CLEAR_TX_DTOG(USBx, ep->num);
 1198              		.loc 1 335 7 discriminator 3 view .LVU390
 336:Drivers/STM32G4xx_HAL_Driver/Src/stm32g4xx_ll_usb.c **** 
 1199              		.loc 1 336 7 discriminator 3 view .LVU391
 1200              	.LBB41:
 336:Drivers/STM32G4xx_HAL_Driver/Src/stm32g4xx_ll_usb.c **** 
 1201              		.loc 1 336 7 discriminator 3 view .LVU392
 336:Drivers/STM32G4xx_HAL_Driver/Src/stm32g4xx_ll_usb.c **** 
ARM GAS  /tmp/cc98KGWN.s 			page 29


 1202              		.loc 1 336 7 discriminator 3 view .LVU393
 1203 0496 0C78     		ldrb	r4, [r1]	@ zero_extendqisi2
 1204 0498 33F82420 		ldrh	r2, [r3, r4, lsl #2]
 1205              	.LVL131:
 336:Drivers/STM32G4xx_HAL_Driver/Src/stm32g4xx_ll_usb.c **** 
 1206              		.loc 1 336 7 discriminator 3 view .LVU394
 1207 049c 12F0400F 		tst	r2, #64
 1208 04a0 0CD0     		beq	.L47
 336:Drivers/STM32G4xx_HAL_Driver/Src/stm32g4xx_ll_usb.c **** 
 1209              		.loc 1 336 7 discriminator 1 view .LVU395
 1210              	.LBB42:
 336:Drivers/STM32G4xx_HAL_Driver/Src/stm32g4xx_ll_usb.c **** 
 1211              		.loc 1 336 7 discriminator 1 view .LVU396
 336:Drivers/STM32G4xx_HAL_Driver/Src/stm32g4xx_ll_usb.c **** 
 1212              		.loc 1 336 7 discriminator 1 view .LVU397
 1213 04a2 33F82420 		ldrh	r2, [r3, r4, lsl #2]
 1214              	.LVL132:
 336:Drivers/STM32G4xx_HAL_Driver/Src/stm32g4xx_ll_usb.c **** 
 1215              		.loc 1 336 7 is_stmt 0 discriminator 1 view .LVU398
 1216 04a6 92B2     		uxth	r2, r2
 1217 04a8 22F4E042 		bic	r2, r2, #28672
 1218 04ac 22F07002 		bic	r2, r2, #112
 1219              	.LVL133:
 336:Drivers/STM32G4xx_HAL_Driver/Src/stm32g4xx_ll_usb.c **** 
 1220              		.loc 1 336 7 is_stmt 1 discriminator 1 view .LVU399
 1221 04b0 42F40042 		orr	r2, r2, #32768
 1222              	.LVL134:
 336:Drivers/STM32G4xx_HAL_Driver/Src/stm32g4xx_ll_usb.c **** 
 1223              		.loc 1 336 7 is_stmt 0 discriminator 1 view .LVU400
 1224 04b4 42F0C002 		orr	r2, r2, #192
 1225 04b8 23F82420 		strh	r2, [r3, r4, lsl #2]	@ movhi
 1226              	.L47:
 336:Drivers/STM32G4xx_HAL_Driver/Src/stm32g4xx_ll_usb.c **** 
 1227              		.loc 1 336 7 discriminator 1 view .LVU401
 1228              	.LBE42:
 336:Drivers/STM32G4xx_HAL_Driver/Src/stm32g4xx_ll_usb.c **** 
 1229              		.loc 1 336 7 is_stmt 1 discriminator 3 view .LVU402
 1230              	.LBE41:
 336:Drivers/STM32G4xx_HAL_Driver/Src/stm32g4xx_ll_usb.c **** 
 1231              		.loc 1 336 7 discriminator 3 view .LVU403
 338:Drivers/STM32G4xx_HAL_Driver/Src/stm32g4xx_ll_usb.c ****       {
 1232              		.loc 1 338 7 discriminator 3 view .LVU404
 338:Drivers/STM32G4xx_HAL_Driver/Src/stm32g4xx_ll_usb.c ****       {
 1233              		.loc 1 338 13 is_stmt 0 discriminator 3 view .LVU405
 1234 04bc CA78     		ldrb	r2, [r1, #3]	@ zero_extendqisi2
 338:Drivers/STM32G4xx_HAL_Driver/Src/stm32g4xx_ll_usb.c ****       {
 1235              		.loc 1 338 10 discriminator 3 view .LVU406
 1236 04be 012A     		cmp	r2, #1
 1237 04c0 1ED0     		beq	.L48
 341:Drivers/STM32G4xx_HAL_Driver/Src/stm32g4xx_ll_usb.c ****       }
 1238              		.loc 1 341 9 is_stmt 1 view .LVU407
 1239              	.LBB43:
 341:Drivers/STM32G4xx_HAL_Driver/Src/stm32g4xx_ll_usb.c ****       }
 1240              		.loc 1 341 9 view .LVU408
 341:Drivers/STM32G4xx_HAL_Driver/Src/stm32g4xx_ll_usb.c ****       }
 1241              		.loc 1 341 9 view .LVU409
 1242 04c2 0C78     		ldrb	r4, [r1]	@ zero_extendqisi2
ARM GAS  /tmp/cc98KGWN.s 			page 30


 1243 04c4 33F82420 		ldrh	r2, [r3, r4, lsl #2]
 1244 04c8 92B2     		uxth	r2, r2
 1245 04ca 22F4E042 		bic	r2, r2, #28672
 1246 04ce 22F04002 		bic	r2, r2, #64
 1247              	.LVL135:
 341:Drivers/STM32G4xx_HAL_Driver/Src/stm32g4xx_ll_usb.c ****       }
 1248              		.loc 1 341 9 view .LVU410
 341:Drivers/STM32G4xx_HAL_Driver/Src/stm32g4xx_ll_usb.c ****       }
 1249              		.loc 1 341 9 view .LVU411
 341:Drivers/STM32G4xx_HAL_Driver/Src/stm32g4xx_ll_usb.c ****       }
 1250              		.loc 1 341 9 view .LVU412
 1251 04d2 82F02002 		eor	r2, r2, #32
 1252              	.LVL136:
 341:Drivers/STM32G4xx_HAL_Driver/Src/stm32g4xx_ll_usb.c ****       }
 1253              		.loc 1 341 9 view .LVU413
 1254 04d6 42F40042 		orr	r2, r2, #32768
 1255              	.LVL137:
 341:Drivers/STM32G4xx_HAL_Driver/Src/stm32g4xx_ll_usb.c ****       }
 1256              		.loc 1 341 9 is_stmt 0 view .LVU414
 1257 04da 42F08002 		orr	r2, r2, #128
 1258 04de 23F82420 		strh	r2, [r3, r4, lsl #2]	@ movhi
 1259              	.LBE43:
 341:Drivers/STM32G4xx_HAL_Driver/Src/stm32g4xx_ll_usb.c ****       }
 1260              		.loc 1 341 9 is_stmt 1 view .LVU415
 1261              	.L49:
 346:Drivers/STM32G4xx_HAL_Driver/Src/stm32g4xx_ll_usb.c ****       }
 1262              		.loc 1 346 9 discriminator 7 view .LVU416
 349:Drivers/STM32G4xx_HAL_Driver/Src/stm32g4xx_ll_usb.c ****     }
 1263              		.loc 1 349 7 discriminator 7 view .LVU417
 1264              	.LBB44:
 349:Drivers/STM32G4xx_HAL_Driver/Src/stm32g4xx_ll_usb.c ****     }
 1265              		.loc 1 349 7 discriminator 7 view .LVU418
 349:Drivers/STM32G4xx_HAL_Driver/Src/stm32g4xx_ll_usb.c ****     }
 1266              		.loc 1 349 7 discriminator 7 view .LVU419
 1267 04e2 0978     		ldrb	r1, [r1]	@ zero_extendqisi2
 1268              	.LVL138:
 349:Drivers/STM32G4xx_HAL_Driver/Src/stm32g4xx_ll_usb.c ****     }
 1269              		.loc 1 349 7 is_stmt 0 discriminator 7 view .LVU420
 1270 04e4 33F82120 		ldrh	r2, [r3, r1, lsl #2]
 1271 04e8 92B2     		uxth	r2, r2
 1272 04ea 22F48042 		bic	r2, r2, #16384
 1273 04ee 22F07002 		bic	r2, r2, #112
 1274              	.LVL139:
 349:Drivers/STM32G4xx_HAL_Driver/Src/stm32g4xx_ll_usb.c ****     }
 1275              		.loc 1 349 7 is_stmt 1 discriminator 7 view .LVU421
 349:Drivers/STM32G4xx_HAL_Driver/Src/stm32g4xx_ll_usb.c ****     }
 1276              		.loc 1 349 7 discriminator 7 view .LVU422
 349:Drivers/STM32G4xx_HAL_Driver/Src/stm32g4xx_ll_usb.c ****     }
 1277              		.loc 1 349 7 discriminator 7 view .LVU423
 1278 04f2 42F40042 		orr	r2, r2, #32768
 1279              	.LVL140:
 349:Drivers/STM32G4xx_HAL_Driver/Src/stm32g4xx_ll_usb.c ****     }
 1280              		.loc 1 349 7 is_stmt 0 discriminator 7 view .LVU424
 1281 04f6 42F08002 		orr	r2, r2, #128
 1282 04fa 23F82120 		strh	r2, [r3, r1, lsl #2]	@ movhi
 1283 04fe ABE7     		b	.L21
 1284              	.LVL141:
ARM GAS  /tmp/cc98KGWN.s 			page 31


 1285              	.L48:
 349:Drivers/STM32G4xx_HAL_Driver/Src/stm32g4xx_ll_usb.c ****     }
 1286              		.loc 1 349 7 discriminator 7 view .LVU425
 1287              	.LBE44:
 346:Drivers/STM32G4xx_HAL_Driver/Src/stm32g4xx_ll_usb.c ****       }
 1288              		.loc 1 346 9 is_stmt 1 view .LVU426
 1289              	.LBB45:
 346:Drivers/STM32G4xx_HAL_Driver/Src/stm32g4xx_ll_usb.c ****       }
 1290              		.loc 1 346 9 view .LVU427
 346:Drivers/STM32G4xx_HAL_Driver/Src/stm32g4xx_ll_usb.c ****       }
 1291              		.loc 1 346 9 view .LVU428
 1292 0500 0C78     		ldrb	r4, [r1]	@ zero_extendqisi2
 1293 0502 33F82420 		ldrh	r2, [r3, r4, lsl #2]
 1294 0506 92B2     		uxth	r2, r2
 1295 0508 22F4E042 		bic	r2, r2, #28672
 1296 050c 22F04002 		bic	r2, r2, #64
 1297              	.LVL142:
 346:Drivers/STM32G4xx_HAL_Driver/Src/stm32g4xx_ll_usb.c ****       }
 1298              		.loc 1 346 9 view .LVU429
 346:Drivers/STM32G4xx_HAL_Driver/Src/stm32g4xx_ll_usb.c ****       }
 1299              		.loc 1 346 9 view .LVU430
 346:Drivers/STM32G4xx_HAL_Driver/Src/stm32g4xx_ll_usb.c ****       }
 1300              		.loc 1 346 9 view .LVU431
 1301 0510 42F40042 		orr	r2, r2, #32768
 1302              	.LVL143:
 346:Drivers/STM32G4xx_HAL_Driver/Src/stm32g4xx_ll_usb.c ****       }
 1303              		.loc 1 346 9 is_stmt 0 view .LVU432
 1304 0514 42F08002 		orr	r2, r2, #128
 1305 0518 23F82420 		strh	r2, [r3, r4, lsl #2]	@ movhi
 1306 051c E1E7     		b	.L49
 1307              	.LBE45:
 1308              		.cfi_endproc
 1309              	.LFE336:
 1311              		.section	.text.USB_DeactivateEndpoint,"ax",%progbits
 1312              		.align	1
 1313              		.global	USB_DeactivateEndpoint
 1314              		.syntax unified
 1315              		.thumb
 1316              		.thumb_func
 1317              		.fpu fpv4-sp-d16
 1319              	USB_DeactivateEndpoint:
 1320              	.LVL144:
 1321              	.LFB337:
 356:Drivers/STM32G4xx_HAL_Driver/Src/stm32g4xx_ll_usb.c **** 
 357:Drivers/STM32G4xx_HAL_Driver/Src/stm32g4xx_ll_usb.c **** /**
 358:Drivers/STM32G4xx_HAL_Driver/Src/stm32g4xx_ll_usb.c ****   * @brief  De-activate and de-initialize an endpoint
 359:Drivers/STM32G4xx_HAL_Driver/Src/stm32g4xx_ll_usb.c ****   * @param  USBx Selected device
 360:Drivers/STM32G4xx_HAL_Driver/Src/stm32g4xx_ll_usb.c ****   * @param  ep pointer to endpoint structure
 361:Drivers/STM32G4xx_HAL_Driver/Src/stm32g4xx_ll_usb.c ****   * @retval HAL status
 362:Drivers/STM32G4xx_HAL_Driver/Src/stm32g4xx_ll_usb.c ****   */
 363:Drivers/STM32G4xx_HAL_Driver/Src/stm32g4xx_ll_usb.c **** HAL_StatusTypeDef USB_DeactivateEndpoint(USB_TypeDef *USBx, USB_EPTypeDef *ep)
 364:Drivers/STM32G4xx_HAL_Driver/Src/stm32g4xx_ll_usb.c **** {
 1322              		.loc 1 364 1 is_stmt 1 view -0
 1323              		.cfi_startproc
 1324              		@ args = 0, pretend = 0, frame = 0
 1325              		@ frame_needed = 0, uses_anonymous_args = 0
 1326              		@ link register save eliminated.
ARM GAS  /tmp/cc98KGWN.s 			page 32


 365:Drivers/STM32G4xx_HAL_Driver/Src/stm32g4xx_ll_usb.c ****   if (ep->doublebuffer == 0U)
 1327              		.loc 1 365 3 view .LVU434
 1328              		.loc 1 365 9 is_stmt 0 view .LVU435
 1329 0000 0B7B     		ldrb	r3, [r1, #12]	@ zero_extendqisi2
 1330              		.loc 1 365 6 view .LVU436
 1331 0002 002B     		cmp	r3, #0
 1332 0004 46D1     		bne	.L56
 366:Drivers/STM32G4xx_HAL_Driver/Src/stm32g4xx_ll_usb.c ****   {
 367:Drivers/STM32G4xx_HAL_Driver/Src/stm32g4xx_ll_usb.c ****     if (ep->is_in != 0U)
 1333              		.loc 1 367 5 is_stmt 1 view .LVU437
 1334              		.loc 1 367 11 is_stmt 0 view .LVU438
 1335 0006 4B78     		ldrb	r3, [r1, #1]	@ zero_extendqisi2
 1336              		.loc 1 367 8 view .LVU439
 1337 0008 13B3     		cbz	r3, .L57
 368:Drivers/STM32G4xx_HAL_Driver/Src/stm32g4xx_ll_usb.c ****     {
 369:Drivers/STM32G4xx_HAL_Driver/Src/stm32g4xx_ll_usb.c ****       PCD_CLEAR_TX_DTOG(USBx, ep->num);
 1338              		.loc 1 369 7 is_stmt 1 view .LVU440
 1339              	.LBB46:
 1340              		.loc 1 369 7 view .LVU441
 1341              		.loc 1 369 7 view .LVU442
 1342 000a 0A78     		ldrb	r2, [r1]	@ zero_extendqisi2
 1343 000c 30F82230 		ldrh	r3, [r0, r2, lsl #2]
 1344              	.LVL145:
 1345              		.loc 1 369 7 view .LVU443
 1346 0010 13F0400F 		tst	r3, #64
 1347 0014 0CD0     		beq	.L58
 1348              		.loc 1 369 7 discriminator 1 view .LVU444
 1349              	.LBB47:
 1350              		.loc 1 369 7 discriminator 1 view .LVU445
 1351              		.loc 1 369 7 discriminator 1 view .LVU446
 1352 0016 30F82230 		ldrh	r3, [r0, r2, lsl #2]
 1353              	.LVL146:
 1354              		.loc 1 369 7 is_stmt 0 discriminator 1 view .LVU447
 1355 001a 9BB2     		uxth	r3, r3
 1356 001c 23F4E043 		bic	r3, r3, #28672
 1357 0020 23F07003 		bic	r3, r3, #112
 1358              	.LVL147:
 1359              		.loc 1 369 7 is_stmt 1 discriminator 1 view .LVU448
 1360 0024 43F40043 		orr	r3, r3, #32768
 1361              	.LVL148:
 1362              		.loc 1 369 7 is_stmt 0 discriminator 1 view .LVU449
 1363 0028 43F0C003 		orr	r3, r3, #192
 1364 002c 20F82230 		strh	r3, [r0, r2, lsl #2]	@ movhi
 1365              	.L58:
 1366              		.loc 1 369 7 discriminator 1 view .LVU450
 1367              	.LBE47:
 1368              		.loc 1 369 7 is_stmt 1 discriminator 3 view .LVU451
 1369              	.LBE46:
 1370              		.loc 1 369 7 discriminator 3 view .LVU452
 370:Drivers/STM32G4xx_HAL_Driver/Src/stm32g4xx_ll_usb.c **** 
 371:Drivers/STM32G4xx_HAL_Driver/Src/stm32g4xx_ll_usb.c ****       /* Configure DISABLE status for the Endpoint */
 372:Drivers/STM32G4xx_HAL_Driver/Src/stm32g4xx_ll_usb.c ****       PCD_SET_EP_TX_STATUS(USBx, ep->num, USB_EP_TX_DIS);
 1371              		.loc 1 372 7 discriminator 3 view .LVU453
 1372              	.LBB48:
 1373              		.loc 1 372 7 discriminator 3 view .LVU454
 1374              		.loc 1 372 7 discriminator 3 view .LVU455
 1375 0030 0A78     		ldrb	r2, [r1]	@ zero_extendqisi2
ARM GAS  /tmp/cc98KGWN.s 			page 33


 1376 0032 30F82230 		ldrh	r3, [r0, r2, lsl #2]
 1377 0036 9BB2     		uxth	r3, r3
 1378 0038 23F4E043 		bic	r3, r3, #28672
 1379 003c 23F04003 		bic	r3, r3, #64
 1380              	.LVL149:
 1381              		.loc 1 372 7 discriminator 3 view .LVU456
 1382              		.loc 1 372 7 discriminator 3 view .LVU457
 1383              		.loc 1 372 7 discriminator 3 view .LVU458
 1384 0040 43F40043 		orr	r3, r3, #32768
 1385              	.LVL150:
 1386              		.loc 1 372 7 is_stmt 0 discriminator 3 view .LVU459
 1387 0044 43F08003 		orr	r3, r3, #128
 1388 0048 20F82230 		strh	r3, [r0, r2, lsl #2]	@ movhi
 1389              	.LBE48:
 1390              		.loc 1 372 7 is_stmt 1 discriminator 3 view .LVU460
 1391              	.L59:
 373:Drivers/STM32G4xx_HAL_Driver/Src/stm32g4xx_ll_usb.c ****     }
 374:Drivers/STM32G4xx_HAL_Driver/Src/stm32g4xx_ll_usb.c **** 
 375:Drivers/STM32G4xx_HAL_Driver/Src/stm32g4xx_ll_usb.c ****     else
 376:Drivers/STM32G4xx_HAL_Driver/Src/stm32g4xx_ll_usb.c ****     {
 377:Drivers/STM32G4xx_HAL_Driver/Src/stm32g4xx_ll_usb.c ****       PCD_CLEAR_RX_DTOG(USBx, ep->num);
 378:Drivers/STM32G4xx_HAL_Driver/Src/stm32g4xx_ll_usb.c **** 
 379:Drivers/STM32G4xx_HAL_Driver/Src/stm32g4xx_ll_usb.c ****       /* Configure DISABLE status for the Endpoint */
 380:Drivers/STM32G4xx_HAL_Driver/Src/stm32g4xx_ll_usb.c ****       PCD_SET_EP_RX_STATUS(USBx, ep->num, USB_EP_RX_DIS);
 381:Drivers/STM32G4xx_HAL_Driver/Src/stm32g4xx_ll_usb.c ****     }
 382:Drivers/STM32G4xx_HAL_Driver/Src/stm32g4xx_ll_usb.c ****   }
 383:Drivers/STM32G4xx_HAL_Driver/Src/stm32g4xx_ll_usb.c **** #if (USE_USB_DOUBLE_BUFFER == 1U)
 384:Drivers/STM32G4xx_HAL_Driver/Src/stm32g4xx_ll_usb.c ****   /* Double Buffer */
 385:Drivers/STM32G4xx_HAL_Driver/Src/stm32g4xx_ll_usb.c ****   else
 386:Drivers/STM32G4xx_HAL_Driver/Src/stm32g4xx_ll_usb.c ****   {
 387:Drivers/STM32G4xx_HAL_Driver/Src/stm32g4xx_ll_usb.c ****     if (ep->is_in == 0U)
 388:Drivers/STM32G4xx_HAL_Driver/Src/stm32g4xx_ll_usb.c ****     {
 389:Drivers/STM32G4xx_HAL_Driver/Src/stm32g4xx_ll_usb.c ****       /* Clear the data toggle bits for the endpoint IN/OUT*/
 390:Drivers/STM32G4xx_HAL_Driver/Src/stm32g4xx_ll_usb.c ****       PCD_CLEAR_RX_DTOG(USBx, ep->num);
 391:Drivers/STM32G4xx_HAL_Driver/Src/stm32g4xx_ll_usb.c ****       PCD_CLEAR_TX_DTOG(USBx, ep->num);
 392:Drivers/STM32G4xx_HAL_Driver/Src/stm32g4xx_ll_usb.c **** 
 393:Drivers/STM32G4xx_HAL_Driver/Src/stm32g4xx_ll_usb.c ****       /* Reset value of the data toggle bits for the endpoint out*/
 394:Drivers/STM32G4xx_HAL_Driver/Src/stm32g4xx_ll_usb.c ****       PCD_TX_DTOG(USBx, ep->num);
 395:Drivers/STM32G4xx_HAL_Driver/Src/stm32g4xx_ll_usb.c **** 
 396:Drivers/STM32G4xx_HAL_Driver/Src/stm32g4xx_ll_usb.c ****       PCD_SET_EP_RX_STATUS(USBx, ep->num, USB_EP_RX_DIS);
 397:Drivers/STM32G4xx_HAL_Driver/Src/stm32g4xx_ll_usb.c ****       PCD_SET_EP_TX_STATUS(USBx, ep->num, USB_EP_TX_DIS);
 398:Drivers/STM32G4xx_HAL_Driver/Src/stm32g4xx_ll_usb.c ****     }
 399:Drivers/STM32G4xx_HAL_Driver/Src/stm32g4xx_ll_usb.c ****     else
 400:Drivers/STM32G4xx_HAL_Driver/Src/stm32g4xx_ll_usb.c ****     {
 401:Drivers/STM32G4xx_HAL_Driver/Src/stm32g4xx_ll_usb.c ****       /* Clear the data toggle bits for the endpoint IN/OUT*/
 402:Drivers/STM32G4xx_HAL_Driver/Src/stm32g4xx_ll_usb.c ****       PCD_CLEAR_RX_DTOG(USBx, ep->num);
 403:Drivers/STM32G4xx_HAL_Driver/Src/stm32g4xx_ll_usb.c ****       PCD_CLEAR_TX_DTOG(USBx, ep->num);
 404:Drivers/STM32G4xx_HAL_Driver/Src/stm32g4xx_ll_usb.c ****       PCD_RX_DTOG(USBx, ep->num);
 405:Drivers/STM32G4xx_HAL_Driver/Src/stm32g4xx_ll_usb.c **** 
 406:Drivers/STM32G4xx_HAL_Driver/Src/stm32g4xx_ll_usb.c ****       /* Configure DISABLE status for the Endpoint*/
 407:Drivers/STM32G4xx_HAL_Driver/Src/stm32g4xx_ll_usb.c ****       PCD_SET_EP_TX_STATUS(USBx, ep->num, USB_EP_TX_DIS);
 408:Drivers/STM32G4xx_HAL_Driver/Src/stm32g4xx_ll_usb.c ****       PCD_SET_EP_RX_STATUS(USBx, ep->num, USB_EP_RX_DIS);
 1392              		.loc 1 408 7 discriminator 7 view .LVU461
 409:Drivers/STM32G4xx_HAL_Driver/Src/stm32g4xx_ll_usb.c ****     }
 410:Drivers/STM32G4xx_HAL_Driver/Src/stm32g4xx_ll_usb.c ****   }
 411:Drivers/STM32G4xx_HAL_Driver/Src/stm32g4xx_ll_usb.c **** #endif /* (USE_USB_DOUBLE_BUFFER == 1U) */
 412:Drivers/STM32G4xx_HAL_Driver/Src/stm32g4xx_ll_usb.c **** 
ARM GAS  /tmp/cc98KGWN.s 			page 34


 413:Drivers/STM32G4xx_HAL_Driver/Src/stm32g4xx_ll_usb.c ****   return HAL_OK;
 1393              		.loc 1 413 3 discriminator 7 view .LVU462
 414:Drivers/STM32G4xx_HAL_Driver/Src/stm32g4xx_ll_usb.c **** }
 1394              		.loc 1 414 1 is_stmt 0 discriminator 7 view .LVU463
 1395 004c 0020     		movs	r0, #0
 1396              	.LVL151:
 1397              		.loc 1 414 1 discriminator 7 view .LVU464
 1398 004e 7047     		bx	lr
 1399              	.LVL152:
 1400              	.L57:
 377:Drivers/STM32G4xx_HAL_Driver/Src/stm32g4xx_ll_usb.c **** 
 1401              		.loc 1 377 7 is_stmt 1 view .LVU465
 1402              	.LBB49:
 377:Drivers/STM32G4xx_HAL_Driver/Src/stm32g4xx_ll_usb.c **** 
 1403              		.loc 1 377 7 view .LVU466
 377:Drivers/STM32G4xx_HAL_Driver/Src/stm32g4xx_ll_usb.c **** 
 1404              		.loc 1 377 7 view .LVU467
 1405 0050 0A78     		ldrb	r2, [r1]	@ zero_extendqisi2
 1406 0052 30F82230 		ldrh	r3, [r0, r2, lsl #2]
 1407              	.LVL153:
 377:Drivers/STM32G4xx_HAL_Driver/Src/stm32g4xx_ll_usb.c **** 
 1408              		.loc 1 377 7 view .LVU468
 1409 0056 13F4804F 		tst	r3, #16384
 1410 005a 0CD0     		beq	.L60
 377:Drivers/STM32G4xx_HAL_Driver/Src/stm32g4xx_ll_usb.c **** 
 1411              		.loc 1 377 7 discriminator 1 view .LVU469
 1412              	.LBB50:
 377:Drivers/STM32G4xx_HAL_Driver/Src/stm32g4xx_ll_usb.c **** 
 1413              		.loc 1 377 7 discriminator 1 view .LVU470
 377:Drivers/STM32G4xx_HAL_Driver/Src/stm32g4xx_ll_usb.c **** 
 1414              		.loc 1 377 7 discriminator 1 view .LVU471
 1415 005c 30F82230 		ldrh	r3, [r0, r2, lsl #2]
 1416              	.LVL154:
 377:Drivers/STM32G4xx_HAL_Driver/Src/stm32g4xx_ll_usb.c **** 
 1417              		.loc 1 377 7 is_stmt 0 discriminator 1 view .LVU472
 1418 0060 9BB2     		uxth	r3, r3
 1419 0062 23F4E043 		bic	r3, r3, #28672
 1420 0066 23F07003 		bic	r3, r3, #112
 1421              	.LVL155:
 377:Drivers/STM32G4xx_HAL_Driver/Src/stm32g4xx_ll_usb.c **** 
 1422              		.loc 1 377 7 is_stmt 1 discriminator 1 view .LVU473
 1423 006a 43F44043 		orr	r3, r3, #49152
 1424              	.LVL156:
 377:Drivers/STM32G4xx_HAL_Driver/Src/stm32g4xx_ll_usb.c **** 
 1425              		.loc 1 377 7 is_stmt 0 discriminator 1 view .LVU474
 1426 006e 43F08003 		orr	r3, r3, #128
 1427 0072 20F82230 		strh	r3, [r0, r2, lsl #2]	@ movhi
 1428              	.L60:
 377:Drivers/STM32G4xx_HAL_Driver/Src/stm32g4xx_ll_usb.c **** 
 1429              		.loc 1 377 7 discriminator 1 view .LVU475
 1430              	.LBE50:
 377:Drivers/STM32G4xx_HAL_Driver/Src/stm32g4xx_ll_usb.c **** 
 1431              		.loc 1 377 7 is_stmt 1 discriminator 3 view .LVU476
 1432              	.LBE49:
 377:Drivers/STM32G4xx_HAL_Driver/Src/stm32g4xx_ll_usb.c **** 
 1433              		.loc 1 377 7 discriminator 3 view .LVU477
 380:Drivers/STM32G4xx_HAL_Driver/Src/stm32g4xx_ll_usb.c ****     }
ARM GAS  /tmp/cc98KGWN.s 			page 35


 1434              		.loc 1 380 7 discriminator 3 view .LVU478
 1435              	.LBB51:
 380:Drivers/STM32G4xx_HAL_Driver/Src/stm32g4xx_ll_usb.c ****     }
 1436              		.loc 1 380 7 discriminator 3 view .LVU479
 380:Drivers/STM32G4xx_HAL_Driver/Src/stm32g4xx_ll_usb.c ****     }
 1437              		.loc 1 380 7 discriminator 3 view .LVU480
 1438 0076 0A78     		ldrb	r2, [r1]	@ zero_extendqisi2
 1439 0078 30F82230 		ldrh	r3, [r0, r2, lsl #2]
 1440 007c 9BB2     		uxth	r3, r3
 1441 007e 23F48043 		bic	r3, r3, #16384
 1442 0082 23F07003 		bic	r3, r3, #112
 1443              	.LVL157:
 380:Drivers/STM32G4xx_HAL_Driver/Src/stm32g4xx_ll_usb.c ****     }
 1444              		.loc 1 380 7 discriminator 3 view .LVU481
 380:Drivers/STM32G4xx_HAL_Driver/Src/stm32g4xx_ll_usb.c ****     }
 1445              		.loc 1 380 7 discriminator 3 view .LVU482
 380:Drivers/STM32G4xx_HAL_Driver/Src/stm32g4xx_ll_usb.c ****     }
 1446              		.loc 1 380 7 discriminator 3 view .LVU483
 1447 0086 43F40043 		orr	r3, r3, #32768
 1448              	.LVL158:
 380:Drivers/STM32G4xx_HAL_Driver/Src/stm32g4xx_ll_usb.c ****     }
 1449              		.loc 1 380 7 is_stmt 0 discriminator 3 view .LVU484
 1450 008a 43F08003 		orr	r3, r3, #128
 1451 008e 20F82230 		strh	r3, [r0, r2, lsl #2]	@ movhi
 1452 0092 DBE7     		b	.L59
 1453              	.L56:
 380:Drivers/STM32G4xx_HAL_Driver/Src/stm32g4xx_ll_usb.c ****     }
 1454              		.loc 1 380 7 discriminator 3 view .LVU485
 1455              	.LBE51:
 387:Drivers/STM32G4xx_HAL_Driver/Src/stm32g4xx_ll_usb.c ****     {
 1456              		.loc 1 387 5 is_stmt 1 view .LVU486
 387:Drivers/STM32G4xx_HAL_Driver/Src/stm32g4xx_ll_usb.c ****     {
 1457              		.loc 1 387 11 is_stmt 0 view .LVU487
 1458 0094 4B78     		ldrb	r3, [r1, #1]	@ zero_extendqisi2
 387:Drivers/STM32G4xx_HAL_Driver/Src/stm32g4xx_ll_usb.c ****     {
 1459              		.loc 1 387 8 view .LVU488
 1460 0096 002B     		cmp	r3, #0
 1461 0098 4ED1     		bne	.L61
 390:Drivers/STM32G4xx_HAL_Driver/Src/stm32g4xx_ll_usb.c ****       PCD_CLEAR_TX_DTOG(USBx, ep->num);
 1462              		.loc 1 390 7 is_stmt 1 view .LVU489
 1463              	.LBB52:
 390:Drivers/STM32G4xx_HAL_Driver/Src/stm32g4xx_ll_usb.c ****       PCD_CLEAR_TX_DTOG(USBx, ep->num);
 1464              		.loc 1 390 7 view .LVU490
 390:Drivers/STM32G4xx_HAL_Driver/Src/stm32g4xx_ll_usb.c ****       PCD_CLEAR_TX_DTOG(USBx, ep->num);
 1465              		.loc 1 390 7 view .LVU491
 1466 009a 0A78     		ldrb	r2, [r1]	@ zero_extendqisi2
 1467 009c 30F82230 		ldrh	r3, [r0, r2, lsl #2]
 1468              	.LVL159:
 390:Drivers/STM32G4xx_HAL_Driver/Src/stm32g4xx_ll_usb.c ****       PCD_CLEAR_TX_DTOG(USBx, ep->num);
 1469              		.loc 1 390 7 view .LVU492
 1470 00a0 13F4804F 		tst	r3, #16384
 1471 00a4 0CD0     		beq	.L62
 390:Drivers/STM32G4xx_HAL_Driver/Src/stm32g4xx_ll_usb.c ****       PCD_CLEAR_TX_DTOG(USBx, ep->num);
 1472              		.loc 1 390 7 discriminator 1 view .LVU493
 1473              	.LBB53:
 390:Drivers/STM32G4xx_HAL_Driver/Src/stm32g4xx_ll_usb.c ****       PCD_CLEAR_TX_DTOG(USBx, ep->num);
 1474              		.loc 1 390 7 discriminator 1 view .LVU494
ARM GAS  /tmp/cc98KGWN.s 			page 36


 390:Drivers/STM32G4xx_HAL_Driver/Src/stm32g4xx_ll_usb.c ****       PCD_CLEAR_TX_DTOG(USBx, ep->num);
 1475              		.loc 1 390 7 discriminator 1 view .LVU495
 1476 00a6 30F82230 		ldrh	r3, [r0, r2, lsl #2]
 1477              	.LVL160:
 390:Drivers/STM32G4xx_HAL_Driver/Src/stm32g4xx_ll_usb.c ****       PCD_CLEAR_TX_DTOG(USBx, ep->num);
 1478              		.loc 1 390 7 is_stmt 0 discriminator 1 view .LVU496
 1479 00aa 9BB2     		uxth	r3, r3
 1480 00ac 23F4E043 		bic	r3, r3, #28672
 1481 00b0 23F07003 		bic	r3, r3, #112
 1482              	.LVL161:
 390:Drivers/STM32G4xx_HAL_Driver/Src/stm32g4xx_ll_usb.c ****       PCD_CLEAR_TX_DTOG(USBx, ep->num);
 1483              		.loc 1 390 7 is_stmt 1 discriminator 1 view .LVU497
 1484 00b4 43F44043 		orr	r3, r3, #49152
 1485              	.LVL162:
 390:Drivers/STM32G4xx_HAL_Driver/Src/stm32g4xx_ll_usb.c ****       PCD_CLEAR_TX_DTOG(USBx, ep->num);
 1486              		.loc 1 390 7 is_stmt 0 discriminator 1 view .LVU498
 1487 00b8 43F08003 		orr	r3, r3, #128
 1488 00bc 20F82230 		strh	r3, [r0, r2, lsl #2]	@ movhi
 1489              	.L62:
 390:Drivers/STM32G4xx_HAL_Driver/Src/stm32g4xx_ll_usb.c ****       PCD_CLEAR_TX_DTOG(USBx, ep->num);
 1490              		.loc 1 390 7 discriminator 1 view .LVU499
 1491              	.LBE53:
 390:Drivers/STM32G4xx_HAL_Driver/Src/stm32g4xx_ll_usb.c ****       PCD_CLEAR_TX_DTOG(USBx, ep->num);
 1492              		.loc 1 390 7 is_stmt 1 discriminator 3 view .LVU500
 1493              	.LBE52:
 390:Drivers/STM32G4xx_HAL_Driver/Src/stm32g4xx_ll_usb.c ****       PCD_CLEAR_TX_DTOG(USBx, ep->num);
 1494              		.loc 1 390 7 discriminator 3 view .LVU501
 391:Drivers/STM32G4xx_HAL_Driver/Src/stm32g4xx_ll_usb.c **** 
 1495              		.loc 1 391 7 discriminator 3 view .LVU502
 1496              	.LBB54:
 391:Drivers/STM32G4xx_HAL_Driver/Src/stm32g4xx_ll_usb.c **** 
 1497              		.loc 1 391 7 discriminator 3 view .LVU503
 391:Drivers/STM32G4xx_HAL_Driver/Src/stm32g4xx_ll_usb.c **** 
 1498              		.loc 1 391 7 discriminator 3 view .LVU504
 1499 00c0 0A78     		ldrb	r2, [r1]	@ zero_extendqisi2
 1500 00c2 30F82230 		ldrh	r3, [r0, r2, lsl #2]
 1501              	.LVL163:
 391:Drivers/STM32G4xx_HAL_Driver/Src/stm32g4xx_ll_usb.c **** 
 1502              		.loc 1 391 7 discriminator 3 view .LVU505
 1503 00c6 13F0400F 		tst	r3, #64
 1504 00ca 0CD0     		beq	.L63
 391:Drivers/STM32G4xx_HAL_Driver/Src/stm32g4xx_ll_usb.c **** 
 1505              		.loc 1 391 7 discriminator 1 view .LVU506
 1506              	.LBB55:
 391:Drivers/STM32G4xx_HAL_Driver/Src/stm32g4xx_ll_usb.c **** 
 1507              		.loc 1 391 7 discriminator 1 view .LVU507
 391:Drivers/STM32G4xx_HAL_Driver/Src/stm32g4xx_ll_usb.c **** 
 1508              		.loc 1 391 7 discriminator 1 view .LVU508
 1509 00cc 30F82230 		ldrh	r3, [r0, r2, lsl #2]
 1510              	.LVL164:
 391:Drivers/STM32G4xx_HAL_Driver/Src/stm32g4xx_ll_usb.c **** 
 1511              		.loc 1 391 7 is_stmt 0 discriminator 1 view .LVU509
 1512 00d0 9BB2     		uxth	r3, r3
 1513 00d2 23F4E043 		bic	r3, r3, #28672
 1514 00d6 23F07003 		bic	r3, r3, #112
 1515              	.LVL165:
 391:Drivers/STM32G4xx_HAL_Driver/Src/stm32g4xx_ll_usb.c **** 
ARM GAS  /tmp/cc98KGWN.s 			page 37


 1516              		.loc 1 391 7 is_stmt 1 discriminator 1 view .LVU510
 1517 00da 43F40043 		orr	r3, r3, #32768
 1518              	.LVL166:
 391:Drivers/STM32G4xx_HAL_Driver/Src/stm32g4xx_ll_usb.c **** 
 1519              		.loc 1 391 7 is_stmt 0 discriminator 1 view .LVU511
 1520 00de 43F0C003 		orr	r3, r3, #192
 1521 00e2 20F82230 		strh	r3, [r0, r2, lsl #2]	@ movhi
 1522              	.L63:
 391:Drivers/STM32G4xx_HAL_Driver/Src/stm32g4xx_ll_usb.c **** 
 1523              		.loc 1 391 7 discriminator 1 view .LVU512
 1524              	.LBE55:
 391:Drivers/STM32G4xx_HAL_Driver/Src/stm32g4xx_ll_usb.c **** 
 1525              		.loc 1 391 7 is_stmt 1 discriminator 3 view .LVU513
 1526              	.LBE54:
 391:Drivers/STM32G4xx_HAL_Driver/Src/stm32g4xx_ll_usb.c **** 
 1527              		.loc 1 391 7 discriminator 3 view .LVU514
 394:Drivers/STM32G4xx_HAL_Driver/Src/stm32g4xx_ll_usb.c **** 
 1528              		.loc 1 394 7 discriminator 3 view .LVU515
 1529              	.LBB56:
 394:Drivers/STM32G4xx_HAL_Driver/Src/stm32g4xx_ll_usb.c **** 
 1530              		.loc 1 394 7 discriminator 3 view .LVU516
 394:Drivers/STM32G4xx_HAL_Driver/Src/stm32g4xx_ll_usb.c **** 
 1531              		.loc 1 394 7 discriminator 3 view .LVU517
 1532 00e6 0A78     		ldrb	r2, [r1]	@ zero_extendqisi2
 1533 00e8 30F82230 		ldrh	r3, [r0, r2, lsl #2]
 1534 00ec 9BB2     		uxth	r3, r3
 1535 00ee 23F4E043 		bic	r3, r3, #28672
 1536 00f2 23F07003 		bic	r3, r3, #112
 1537              	.LVL167:
 394:Drivers/STM32G4xx_HAL_Driver/Src/stm32g4xx_ll_usb.c **** 
 1538              		.loc 1 394 7 discriminator 3 view .LVU518
 1539 00f6 43F40043 		orr	r3, r3, #32768
 1540              	.LVL168:
 394:Drivers/STM32G4xx_HAL_Driver/Src/stm32g4xx_ll_usb.c **** 
 1541              		.loc 1 394 7 is_stmt 0 discriminator 3 view .LVU519
 1542 00fa 43F0C003 		orr	r3, r3, #192
 1543 00fe 20F82230 		strh	r3, [r0, r2, lsl #2]	@ movhi
 1544              	.LBE56:
 394:Drivers/STM32G4xx_HAL_Driver/Src/stm32g4xx_ll_usb.c **** 
 1545              		.loc 1 394 7 is_stmt 1 discriminator 3 view .LVU520
 396:Drivers/STM32G4xx_HAL_Driver/Src/stm32g4xx_ll_usb.c ****       PCD_SET_EP_TX_STATUS(USBx, ep->num, USB_EP_TX_DIS);
 1546              		.loc 1 396 7 discriminator 3 view .LVU521
 1547              	.LBB57:
 396:Drivers/STM32G4xx_HAL_Driver/Src/stm32g4xx_ll_usb.c ****       PCD_SET_EP_TX_STATUS(USBx, ep->num, USB_EP_TX_DIS);
 1548              		.loc 1 396 7 discriminator 3 view .LVU522
 396:Drivers/STM32G4xx_HAL_Driver/Src/stm32g4xx_ll_usb.c ****       PCD_SET_EP_TX_STATUS(USBx, ep->num, USB_EP_TX_DIS);
 1549              		.loc 1 396 7 discriminator 3 view .LVU523
 1550 0102 0B78     		ldrb	r3, [r1]	@ zero_extendqisi2
 1551 0104 30F82320 		ldrh	r2, [r0, r3, lsl #2]
 1552 0108 92B2     		uxth	r2, r2
 1553 010a 22F48042 		bic	r2, r2, #16384
 1554 010e 22F07002 		bic	r2, r2, #112
 1555              	.LVL169:
 396:Drivers/STM32G4xx_HAL_Driver/Src/stm32g4xx_ll_usb.c ****       PCD_SET_EP_TX_STATUS(USBx, ep->num, USB_EP_TX_DIS);
 1556              		.loc 1 396 7 discriminator 3 view .LVU524
 396:Drivers/STM32G4xx_HAL_Driver/Src/stm32g4xx_ll_usb.c ****       PCD_SET_EP_TX_STATUS(USBx, ep->num, USB_EP_TX_DIS);
 1557              		.loc 1 396 7 discriminator 3 view .LVU525
ARM GAS  /tmp/cc98KGWN.s 			page 38


 396:Drivers/STM32G4xx_HAL_Driver/Src/stm32g4xx_ll_usb.c ****       PCD_SET_EP_TX_STATUS(USBx, ep->num, USB_EP_TX_DIS);
 1558              		.loc 1 396 7 discriminator 3 view .LVU526
 1559 0112 48F2800C 		movw	ip, #32896
 1560 0116 42EA0C02 		orr	r2, r2, ip
 1561              	.LVL170:
 396:Drivers/STM32G4xx_HAL_Driver/Src/stm32g4xx_ll_usb.c ****       PCD_SET_EP_TX_STATUS(USBx, ep->num, USB_EP_TX_DIS);
 1562              		.loc 1 396 7 is_stmt 0 discriminator 3 view .LVU527
 1563 011a 20F82320 		strh	r2, [r0, r3, lsl #2]	@ movhi
 1564              	.LBE57:
 396:Drivers/STM32G4xx_HAL_Driver/Src/stm32g4xx_ll_usb.c ****       PCD_SET_EP_TX_STATUS(USBx, ep->num, USB_EP_TX_DIS);
 1565              		.loc 1 396 7 is_stmt 1 discriminator 3 view .LVU528
 397:Drivers/STM32G4xx_HAL_Driver/Src/stm32g4xx_ll_usb.c ****     }
 1566              		.loc 1 397 7 discriminator 3 view .LVU529
 1567              	.LBB58:
 397:Drivers/STM32G4xx_HAL_Driver/Src/stm32g4xx_ll_usb.c ****     }
 1568              		.loc 1 397 7 discriminator 3 view .LVU530
 397:Drivers/STM32G4xx_HAL_Driver/Src/stm32g4xx_ll_usb.c ****     }
 1569              		.loc 1 397 7 discriminator 3 view .LVU531
 1570 011e 0A78     		ldrb	r2, [r1]	@ zero_extendqisi2
 1571 0120 30F82230 		ldrh	r3, [r0, r2, lsl #2]
 1572 0124 9BB2     		uxth	r3, r3
 1573 0126 23F4E043 		bic	r3, r3, #28672
 1574 012a 23F04003 		bic	r3, r3, #64
 1575              	.LVL171:
 397:Drivers/STM32G4xx_HAL_Driver/Src/stm32g4xx_ll_usb.c ****     }
 1576              		.loc 1 397 7 discriminator 3 view .LVU532
 397:Drivers/STM32G4xx_HAL_Driver/Src/stm32g4xx_ll_usb.c ****     }
 1577              		.loc 1 397 7 discriminator 3 view .LVU533
 397:Drivers/STM32G4xx_HAL_Driver/Src/stm32g4xx_ll_usb.c ****     }
 1578              		.loc 1 397 7 discriminator 3 view .LVU534
 1579 012e 43EA0C03 		orr	r3, r3, ip
 1580              	.LVL172:
 397:Drivers/STM32G4xx_HAL_Driver/Src/stm32g4xx_ll_usb.c ****     }
 1581              		.loc 1 397 7 is_stmt 0 discriminator 3 view .LVU535
 1582 0132 20F82230 		strh	r3, [r0, r2, lsl #2]	@ movhi
 1583              	.LBE58:
 397:Drivers/STM32G4xx_HAL_Driver/Src/stm32g4xx_ll_usb.c ****     }
 1584              		.loc 1 397 7 is_stmt 1 discriminator 3 view .LVU536
 1585 0136 89E7     		b	.L59
 1586              	.L61:
 402:Drivers/STM32G4xx_HAL_Driver/Src/stm32g4xx_ll_usb.c ****       PCD_CLEAR_TX_DTOG(USBx, ep->num);
 1587              		.loc 1 402 7 view .LVU537
 1588              	.LBB59:
 402:Drivers/STM32G4xx_HAL_Driver/Src/stm32g4xx_ll_usb.c ****       PCD_CLEAR_TX_DTOG(USBx, ep->num);
 1589              		.loc 1 402 7 view .LVU538
 402:Drivers/STM32G4xx_HAL_Driver/Src/stm32g4xx_ll_usb.c ****       PCD_CLEAR_TX_DTOG(USBx, ep->num);
 1590              		.loc 1 402 7 view .LVU539
 1591 0138 0A78     		ldrb	r2, [r1]	@ zero_extendqisi2
 1592 013a 30F82230 		ldrh	r3, [r0, r2, lsl #2]
 1593              	.LVL173:
 402:Drivers/STM32G4xx_HAL_Driver/Src/stm32g4xx_ll_usb.c ****       PCD_CLEAR_TX_DTOG(USBx, ep->num);
 1594              		.loc 1 402 7 view .LVU540
 1595 013e 13F4804F 		tst	r3, #16384
 1596 0142 0CD0     		beq	.L64
 402:Drivers/STM32G4xx_HAL_Driver/Src/stm32g4xx_ll_usb.c ****       PCD_CLEAR_TX_DTOG(USBx, ep->num);
 1597              		.loc 1 402 7 discriminator 1 view .LVU541
 1598              	.LBB60:
ARM GAS  /tmp/cc98KGWN.s 			page 39


 402:Drivers/STM32G4xx_HAL_Driver/Src/stm32g4xx_ll_usb.c ****       PCD_CLEAR_TX_DTOG(USBx, ep->num);
 1599              		.loc 1 402 7 discriminator 1 view .LVU542
 402:Drivers/STM32G4xx_HAL_Driver/Src/stm32g4xx_ll_usb.c ****       PCD_CLEAR_TX_DTOG(USBx, ep->num);
 1600              		.loc 1 402 7 discriminator 1 view .LVU543
 1601 0144 30F82230 		ldrh	r3, [r0, r2, lsl #2]
 1602              	.LVL174:
 402:Drivers/STM32G4xx_HAL_Driver/Src/stm32g4xx_ll_usb.c ****       PCD_CLEAR_TX_DTOG(USBx, ep->num);
 1603              		.loc 1 402 7 is_stmt 0 discriminator 1 view .LVU544
 1604 0148 9BB2     		uxth	r3, r3
 1605 014a 23F4E043 		bic	r3, r3, #28672
 1606 014e 23F07003 		bic	r3, r3, #112
 1607              	.LVL175:
 402:Drivers/STM32G4xx_HAL_Driver/Src/stm32g4xx_ll_usb.c ****       PCD_CLEAR_TX_DTOG(USBx, ep->num);
 1608              		.loc 1 402 7 is_stmt 1 discriminator 1 view .LVU545
 1609 0152 43F44043 		orr	r3, r3, #49152
 1610              	.LVL176:
 402:Drivers/STM32G4xx_HAL_Driver/Src/stm32g4xx_ll_usb.c ****       PCD_CLEAR_TX_DTOG(USBx, ep->num);
 1611              		.loc 1 402 7 is_stmt 0 discriminator 1 view .LVU546
 1612 0156 43F08003 		orr	r3, r3, #128
 1613 015a 20F82230 		strh	r3, [r0, r2, lsl #2]	@ movhi
 1614              	.L64:
 402:Drivers/STM32G4xx_HAL_Driver/Src/stm32g4xx_ll_usb.c ****       PCD_CLEAR_TX_DTOG(USBx, ep->num);
 1615              		.loc 1 402 7 discriminator 1 view .LVU547
 1616              	.LBE60:
 402:Drivers/STM32G4xx_HAL_Driver/Src/stm32g4xx_ll_usb.c ****       PCD_CLEAR_TX_DTOG(USBx, ep->num);
 1617              		.loc 1 402 7 is_stmt 1 discriminator 3 view .LVU548
 1618              	.LBE59:
 402:Drivers/STM32G4xx_HAL_Driver/Src/stm32g4xx_ll_usb.c ****       PCD_CLEAR_TX_DTOG(USBx, ep->num);
 1619              		.loc 1 402 7 discriminator 3 view .LVU549
 403:Drivers/STM32G4xx_HAL_Driver/Src/stm32g4xx_ll_usb.c ****       PCD_RX_DTOG(USBx, ep->num);
 1620              		.loc 1 403 7 discriminator 3 view .LVU550
 1621              	.LBB61:
 403:Drivers/STM32G4xx_HAL_Driver/Src/stm32g4xx_ll_usb.c ****       PCD_RX_DTOG(USBx, ep->num);
 1622              		.loc 1 403 7 discriminator 3 view .LVU551
 403:Drivers/STM32G4xx_HAL_Driver/Src/stm32g4xx_ll_usb.c ****       PCD_RX_DTOG(USBx, ep->num);
 1623              		.loc 1 403 7 discriminator 3 view .LVU552
 1624 015e 0A78     		ldrb	r2, [r1]	@ zero_extendqisi2
 1625 0160 30F82230 		ldrh	r3, [r0, r2, lsl #2]
 1626              	.LVL177:
 403:Drivers/STM32G4xx_HAL_Driver/Src/stm32g4xx_ll_usb.c ****       PCD_RX_DTOG(USBx, ep->num);
 1627              		.loc 1 403 7 discriminator 3 view .LVU553
 1628 0164 13F0400F 		tst	r3, #64
 1629 0168 0CD0     		beq	.L65
 403:Drivers/STM32G4xx_HAL_Driver/Src/stm32g4xx_ll_usb.c ****       PCD_RX_DTOG(USBx, ep->num);
 1630              		.loc 1 403 7 discriminator 1 view .LVU554
 1631              	.LBB62:
 403:Drivers/STM32G4xx_HAL_Driver/Src/stm32g4xx_ll_usb.c ****       PCD_RX_DTOG(USBx, ep->num);
 1632              		.loc 1 403 7 discriminator 1 view .LVU555
 403:Drivers/STM32G4xx_HAL_Driver/Src/stm32g4xx_ll_usb.c ****       PCD_RX_DTOG(USBx, ep->num);
 1633              		.loc 1 403 7 discriminator 1 view .LVU556
 1634 016a 30F82230 		ldrh	r3, [r0, r2, lsl #2]
 1635              	.LVL178:
 403:Drivers/STM32G4xx_HAL_Driver/Src/stm32g4xx_ll_usb.c ****       PCD_RX_DTOG(USBx, ep->num);
 1636              		.loc 1 403 7 is_stmt 0 discriminator 1 view .LVU557
 1637 016e 9BB2     		uxth	r3, r3
 1638 0170 23F4E043 		bic	r3, r3, #28672
 1639 0174 23F07003 		bic	r3, r3, #112
ARM GAS  /tmp/cc98KGWN.s 			page 40


 1640              	.LVL179:
 403:Drivers/STM32G4xx_HAL_Driver/Src/stm32g4xx_ll_usb.c ****       PCD_RX_DTOG(USBx, ep->num);
 1641              		.loc 1 403 7 is_stmt 1 discriminator 1 view .LVU558
 1642 0178 43F40043 		orr	r3, r3, #32768
 1643              	.LVL180:
 403:Drivers/STM32G4xx_HAL_Driver/Src/stm32g4xx_ll_usb.c ****       PCD_RX_DTOG(USBx, ep->num);
 1644              		.loc 1 403 7 is_stmt 0 discriminator 1 view .LVU559
 1645 017c 43F0C003 		orr	r3, r3, #192
 1646 0180 20F82230 		strh	r3, [r0, r2, lsl #2]	@ movhi
 1647              	.L65:
 403:Drivers/STM32G4xx_HAL_Driver/Src/stm32g4xx_ll_usb.c ****       PCD_RX_DTOG(USBx, ep->num);
 1648              		.loc 1 403 7 discriminator 1 view .LVU560
 1649              	.LBE62:
 403:Drivers/STM32G4xx_HAL_Driver/Src/stm32g4xx_ll_usb.c ****       PCD_RX_DTOG(USBx, ep->num);
 1650              		.loc 1 403 7 is_stmt 1 discriminator 3 view .LVU561
 1651              	.LBE61:
 403:Drivers/STM32G4xx_HAL_Driver/Src/stm32g4xx_ll_usb.c ****       PCD_RX_DTOG(USBx, ep->num);
 1652              		.loc 1 403 7 discriminator 3 view .LVU562
 404:Drivers/STM32G4xx_HAL_Driver/Src/stm32g4xx_ll_usb.c **** 
 1653              		.loc 1 404 7 discriminator 3 view .LVU563
 1654              	.LBB63:
 404:Drivers/STM32G4xx_HAL_Driver/Src/stm32g4xx_ll_usb.c **** 
 1655              		.loc 1 404 7 discriminator 3 view .LVU564
 404:Drivers/STM32G4xx_HAL_Driver/Src/stm32g4xx_ll_usb.c **** 
 1656              		.loc 1 404 7 discriminator 3 view .LVU565
 1657 0184 0A78     		ldrb	r2, [r1]	@ zero_extendqisi2
 1658 0186 30F82230 		ldrh	r3, [r0, r2, lsl #2]
 1659 018a 9BB2     		uxth	r3, r3
 1660 018c 23F4E043 		bic	r3, r3, #28672
 1661 0190 23F07003 		bic	r3, r3, #112
 1662              	.LVL181:
 404:Drivers/STM32G4xx_HAL_Driver/Src/stm32g4xx_ll_usb.c **** 
 1663              		.loc 1 404 7 discriminator 3 view .LVU566
 1664 0194 43F44043 		orr	r3, r3, #49152
 1665              	.LVL182:
 404:Drivers/STM32G4xx_HAL_Driver/Src/stm32g4xx_ll_usb.c **** 
 1666              		.loc 1 404 7 is_stmt 0 discriminator 3 view .LVU567
 1667 0198 43F08003 		orr	r3, r3, #128
 1668 019c 20F82230 		strh	r3, [r0, r2, lsl #2]	@ movhi
 1669              	.LBE63:
 404:Drivers/STM32G4xx_HAL_Driver/Src/stm32g4xx_ll_usb.c **** 
 1670              		.loc 1 404 7 is_stmt 1 discriminator 3 view .LVU568
 407:Drivers/STM32G4xx_HAL_Driver/Src/stm32g4xx_ll_usb.c ****       PCD_SET_EP_RX_STATUS(USBx, ep->num, USB_EP_RX_DIS);
 1671              		.loc 1 407 7 discriminator 3 view .LVU569
 1672              	.LBB64:
 407:Drivers/STM32G4xx_HAL_Driver/Src/stm32g4xx_ll_usb.c ****       PCD_SET_EP_RX_STATUS(USBx, ep->num, USB_EP_RX_DIS);
 1673              		.loc 1 407 7 discriminator 3 view .LVU570
 407:Drivers/STM32G4xx_HAL_Driver/Src/stm32g4xx_ll_usb.c ****       PCD_SET_EP_RX_STATUS(USBx, ep->num, USB_EP_RX_DIS);
 1674              		.loc 1 407 7 discriminator 3 view .LVU571
 1675 01a0 0B78     		ldrb	r3, [r1]	@ zero_extendqisi2
 1676 01a2 30F82320 		ldrh	r2, [r0, r3, lsl #2]
 1677 01a6 92B2     		uxth	r2, r2
 1678 01a8 22F4E042 		bic	r2, r2, #28672
 1679 01ac 22F04002 		bic	r2, r2, #64
 1680              	.LVL183:
 407:Drivers/STM32G4xx_HAL_Driver/Src/stm32g4xx_ll_usb.c ****       PCD_SET_EP_RX_STATUS(USBx, ep->num, USB_EP_RX_DIS);
 1681              		.loc 1 407 7 discriminator 3 view .LVU572
ARM GAS  /tmp/cc98KGWN.s 			page 41


 407:Drivers/STM32G4xx_HAL_Driver/Src/stm32g4xx_ll_usb.c ****       PCD_SET_EP_RX_STATUS(USBx, ep->num, USB_EP_RX_DIS);
 1682              		.loc 1 407 7 discriminator 3 view .LVU573
 407:Drivers/STM32G4xx_HAL_Driver/Src/stm32g4xx_ll_usb.c ****       PCD_SET_EP_RX_STATUS(USBx, ep->num, USB_EP_RX_DIS);
 1683              		.loc 1 407 7 discriminator 3 view .LVU574
 1684 01b0 48F2800C 		movw	ip, #32896
 1685 01b4 42EA0C02 		orr	r2, r2, ip
 1686              	.LVL184:
 407:Drivers/STM32G4xx_HAL_Driver/Src/stm32g4xx_ll_usb.c ****       PCD_SET_EP_RX_STATUS(USBx, ep->num, USB_EP_RX_DIS);
 1687              		.loc 1 407 7 is_stmt 0 discriminator 3 view .LVU575
 1688 01b8 20F82320 		strh	r2, [r0, r3, lsl #2]	@ movhi
 1689              	.LBE64:
 407:Drivers/STM32G4xx_HAL_Driver/Src/stm32g4xx_ll_usb.c ****       PCD_SET_EP_RX_STATUS(USBx, ep->num, USB_EP_RX_DIS);
 1690              		.loc 1 407 7 is_stmt 1 discriminator 3 view .LVU576
 408:Drivers/STM32G4xx_HAL_Driver/Src/stm32g4xx_ll_usb.c ****     }
 1691              		.loc 1 408 7 discriminator 3 view .LVU577
 1692              	.LBB65:
 408:Drivers/STM32G4xx_HAL_Driver/Src/stm32g4xx_ll_usb.c ****     }
 1693              		.loc 1 408 7 discriminator 3 view .LVU578
 408:Drivers/STM32G4xx_HAL_Driver/Src/stm32g4xx_ll_usb.c ****     }
 1694              		.loc 1 408 7 discriminator 3 view .LVU579
 1695 01bc 0A78     		ldrb	r2, [r1]	@ zero_extendqisi2
 1696 01be 30F82230 		ldrh	r3, [r0, r2, lsl #2]
 1697 01c2 9BB2     		uxth	r3, r3
 1698 01c4 23F48043 		bic	r3, r3, #16384
 1699 01c8 23F07003 		bic	r3, r3, #112
 1700              	.LVL185:
 408:Drivers/STM32G4xx_HAL_Driver/Src/stm32g4xx_ll_usb.c ****     }
 1701              		.loc 1 408 7 discriminator 3 view .LVU580
 408:Drivers/STM32G4xx_HAL_Driver/Src/stm32g4xx_ll_usb.c ****     }
 1702              		.loc 1 408 7 discriminator 3 view .LVU581
 408:Drivers/STM32G4xx_HAL_Driver/Src/stm32g4xx_ll_usb.c ****     }
 1703              		.loc 1 408 7 discriminator 3 view .LVU582
 1704 01cc 43EA0C03 		orr	r3, r3, ip
 1705              	.LVL186:
 408:Drivers/STM32G4xx_HAL_Driver/Src/stm32g4xx_ll_usb.c ****     }
 1706              		.loc 1 408 7 is_stmt 0 discriminator 3 view .LVU583
 1707 01d0 20F82230 		strh	r3, [r0, r2, lsl #2]	@ movhi
 1708 01d4 3AE7     		b	.L59
 1709              	.LBE65:
 1710              		.cfi_endproc
 1711              	.LFE337:
 1713              		.section	.text.USB_EPSetStall,"ax",%progbits
 1714              		.align	1
 1715              		.global	USB_EPSetStall
 1716              		.syntax unified
 1717              		.thumb
 1718              		.thumb_func
 1719              		.fpu fpv4-sp-d16
 1721              	USB_EPSetStall:
 1722              	.LVL187:
 1723              	.LFB339:
 415:Drivers/STM32G4xx_HAL_Driver/Src/stm32g4xx_ll_usb.c **** 
 416:Drivers/STM32G4xx_HAL_Driver/Src/stm32g4xx_ll_usb.c **** /**
 417:Drivers/STM32G4xx_HAL_Driver/Src/stm32g4xx_ll_usb.c ****   * @brief  USB_EPStartXfer setup and starts a transfer over an EP
 418:Drivers/STM32G4xx_HAL_Driver/Src/stm32g4xx_ll_usb.c ****   * @param  USBx Selected device
 419:Drivers/STM32G4xx_HAL_Driver/Src/stm32g4xx_ll_usb.c ****   * @param  ep pointer to endpoint structure
 420:Drivers/STM32G4xx_HAL_Driver/Src/stm32g4xx_ll_usb.c ****   * @retval HAL status
ARM GAS  /tmp/cc98KGWN.s 			page 42


 421:Drivers/STM32G4xx_HAL_Driver/Src/stm32g4xx_ll_usb.c ****   */
 422:Drivers/STM32G4xx_HAL_Driver/Src/stm32g4xx_ll_usb.c **** HAL_StatusTypeDef USB_EPStartXfer(USB_TypeDef *USBx, USB_EPTypeDef *ep)
 423:Drivers/STM32G4xx_HAL_Driver/Src/stm32g4xx_ll_usb.c **** {
 424:Drivers/STM32G4xx_HAL_Driver/Src/stm32g4xx_ll_usb.c ****   uint32_t len;
 425:Drivers/STM32G4xx_HAL_Driver/Src/stm32g4xx_ll_usb.c **** #if (USE_USB_DOUBLE_BUFFER == 1U)
 426:Drivers/STM32G4xx_HAL_Driver/Src/stm32g4xx_ll_usb.c ****   uint16_t pmabuffer;
 427:Drivers/STM32G4xx_HAL_Driver/Src/stm32g4xx_ll_usb.c ****   uint16_t wEPVal;
 428:Drivers/STM32G4xx_HAL_Driver/Src/stm32g4xx_ll_usb.c **** #endif /* (USE_USB_DOUBLE_BUFFER == 1U) */
 429:Drivers/STM32G4xx_HAL_Driver/Src/stm32g4xx_ll_usb.c **** 
 430:Drivers/STM32G4xx_HAL_Driver/Src/stm32g4xx_ll_usb.c ****   /* IN endpoint */
 431:Drivers/STM32G4xx_HAL_Driver/Src/stm32g4xx_ll_usb.c ****   if (ep->is_in == 1U)
 432:Drivers/STM32G4xx_HAL_Driver/Src/stm32g4xx_ll_usb.c ****   {
 433:Drivers/STM32G4xx_HAL_Driver/Src/stm32g4xx_ll_usb.c ****     /* Multi packet transfer */
 434:Drivers/STM32G4xx_HAL_Driver/Src/stm32g4xx_ll_usb.c ****     if (ep->xfer_len > ep->maxpacket)
 435:Drivers/STM32G4xx_HAL_Driver/Src/stm32g4xx_ll_usb.c ****     {
 436:Drivers/STM32G4xx_HAL_Driver/Src/stm32g4xx_ll_usb.c ****       len = ep->maxpacket;
 437:Drivers/STM32G4xx_HAL_Driver/Src/stm32g4xx_ll_usb.c ****     }
 438:Drivers/STM32G4xx_HAL_Driver/Src/stm32g4xx_ll_usb.c ****     else
 439:Drivers/STM32G4xx_HAL_Driver/Src/stm32g4xx_ll_usb.c ****     {
 440:Drivers/STM32G4xx_HAL_Driver/Src/stm32g4xx_ll_usb.c ****       len = ep->xfer_len;
 441:Drivers/STM32G4xx_HAL_Driver/Src/stm32g4xx_ll_usb.c ****     }
 442:Drivers/STM32G4xx_HAL_Driver/Src/stm32g4xx_ll_usb.c **** 
 443:Drivers/STM32G4xx_HAL_Driver/Src/stm32g4xx_ll_usb.c ****     /* configure and validate Tx endpoint */
 444:Drivers/STM32G4xx_HAL_Driver/Src/stm32g4xx_ll_usb.c ****     if (ep->doublebuffer == 0U)
 445:Drivers/STM32G4xx_HAL_Driver/Src/stm32g4xx_ll_usb.c ****     {
 446:Drivers/STM32G4xx_HAL_Driver/Src/stm32g4xx_ll_usb.c ****       USB_WritePMA(USBx, ep->xfer_buff, ep->pmaadress, (uint16_t)len);
 447:Drivers/STM32G4xx_HAL_Driver/Src/stm32g4xx_ll_usb.c ****       PCD_SET_EP_TX_CNT(USBx, ep->num, len);
 448:Drivers/STM32G4xx_HAL_Driver/Src/stm32g4xx_ll_usb.c ****     }
 449:Drivers/STM32G4xx_HAL_Driver/Src/stm32g4xx_ll_usb.c **** #if (USE_USB_DOUBLE_BUFFER == 1U)
 450:Drivers/STM32G4xx_HAL_Driver/Src/stm32g4xx_ll_usb.c ****     else
 451:Drivers/STM32G4xx_HAL_Driver/Src/stm32g4xx_ll_usb.c ****     {
 452:Drivers/STM32G4xx_HAL_Driver/Src/stm32g4xx_ll_usb.c ****       /* double buffer bulk management */
 453:Drivers/STM32G4xx_HAL_Driver/Src/stm32g4xx_ll_usb.c ****       if (ep->type == EP_TYPE_BULK)
 454:Drivers/STM32G4xx_HAL_Driver/Src/stm32g4xx_ll_usb.c ****       {
 455:Drivers/STM32G4xx_HAL_Driver/Src/stm32g4xx_ll_usb.c ****         if (ep->xfer_len_db > ep->maxpacket)
 456:Drivers/STM32G4xx_HAL_Driver/Src/stm32g4xx_ll_usb.c ****         {
 457:Drivers/STM32G4xx_HAL_Driver/Src/stm32g4xx_ll_usb.c ****           /* enable double buffer */
 458:Drivers/STM32G4xx_HAL_Driver/Src/stm32g4xx_ll_usb.c ****           PCD_SET_BULK_EP_DBUF(USBx, ep->num);
 459:Drivers/STM32G4xx_HAL_Driver/Src/stm32g4xx_ll_usb.c **** 
 460:Drivers/STM32G4xx_HAL_Driver/Src/stm32g4xx_ll_usb.c ****           /* each Time to write in PMA xfer_len_db will */
 461:Drivers/STM32G4xx_HAL_Driver/Src/stm32g4xx_ll_usb.c ****           ep->xfer_len_db -= len;
 462:Drivers/STM32G4xx_HAL_Driver/Src/stm32g4xx_ll_usb.c **** 
 463:Drivers/STM32G4xx_HAL_Driver/Src/stm32g4xx_ll_usb.c ****           /* Fill the two first buffer in the Buffer0 & Buffer1 */
 464:Drivers/STM32G4xx_HAL_Driver/Src/stm32g4xx_ll_usb.c ****           if ((PCD_GET_ENDPOINT(USBx, ep->num) & USB_EP_DTOG_TX) != 0U)
 465:Drivers/STM32G4xx_HAL_Driver/Src/stm32g4xx_ll_usb.c ****           {
 466:Drivers/STM32G4xx_HAL_Driver/Src/stm32g4xx_ll_usb.c ****             /* Set the Double buffer counter for pmabuffer1 */
 467:Drivers/STM32G4xx_HAL_Driver/Src/stm32g4xx_ll_usb.c ****             PCD_SET_EP_DBUF1_CNT(USBx, ep->num, ep->is_in, len);
 468:Drivers/STM32G4xx_HAL_Driver/Src/stm32g4xx_ll_usb.c ****             pmabuffer = ep->pmaaddr1;
 469:Drivers/STM32G4xx_HAL_Driver/Src/stm32g4xx_ll_usb.c **** 
 470:Drivers/STM32G4xx_HAL_Driver/Src/stm32g4xx_ll_usb.c ****             /* Write the user buffer to USB PMA */
 471:Drivers/STM32G4xx_HAL_Driver/Src/stm32g4xx_ll_usb.c ****             USB_WritePMA(USBx, ep->xfer_buff, pmabuffer, (uint16_t)len);
 472:Drivers/STM32G4xx_HAL_Driver/Src/stm32g4xx_ll_usb.c ****             ep->xfer_buff += len;
 473:Drivers/STM32G4xx_HAL_Driver/Src/stm32g4xx_ll_usb.c **** 
 474:Drivers/STM32G4xx_HAL_Driver/Src/stm32g4xx_ll_usb.c ****             if (ep->xfer_len_db > ep->maxpacket)
 475:Drivers/STM32G4xx_HAL_Driver/Src/stm32g4xx_ll_usb.c ****             {
 476:Drivers/STM32G4xx_HAL_Driver/Src/stm32g4xx_ll_usb.c ****               ep->xfer_len_db -= len;
 477:Drivers/STM32G4xx_HAL_Driver/Src/stm32g4xx_ll_usb.c ****             }
ARM GAS  /tmp/cc98KGWN.s 			page 43


 478:Drivers/STM32G4xx_HAL_Driver/Src/stm32g4xx_ll_usb.c ****             else
 479:Drivers/STM32G4xx_HAL_Driver/Src/stm32g4xx_ll_usb.c ****             {
 480:Drivers/STM32G4xx_HAL_Driver/Src/stm32g4xx_ll_usb.c ****               len = ep->xfer_len_db;
 481:Drivers/STM32G4xx_HAL_Driver/Src/stm32g4xx_ll_usb.c ****               ep->xfer_len_db = 0U;
 482:Drivers/STM32G4xx_HAL_Driver/Src/stm32g4xx_ll_usb.c ****             }
 483:Drivers/STM32G4xx_HAL_Driver/Src/stm32g4xx_ll_usb.c **** 
 484:Drivers/STM32G4xx_HAL_Driver/Src/stm32g4xx_ll_usb.c ****             /* Set the Double buffer counter for pmabuffer0 */
 485:Drivers/STM32G4xx_HAL_Driver/Src/stm32g4xx_ll_usb.c ****             PCD_SET_EP_DBUF0_CNT(USBx, ep->num, ep->is_in, len);
 486:Drivers/STM32G4xx_HAL_Driver/Src/stm32g4xx_ll_usb.c ****             pmabuffer = ep->pmaaddr0;
 487:Drivers/STM32G4xx_HAL_Driver/Src/stm32g4xx_ll_usb.c **** 
 488:Drivers/STM32G4xx_HAL_Driver/Src/stm32g4xx_ll_usb.c ****             /* Write the user buffer to USB PMA */
 489:Drivers/STM32G4xx_HAL_Driver/Src/stm32g4xx_ll_usb.c ****             USB_WritePMA(USBx, ep->xfer_buff, pmabuffer, (uint16_t)len);
 490:Drivers/STM32G4xx_HAL_Driver/Src/stm32g4xx_ll_usb.c ****           }
 491:Drivers/STM32G4xx_HAL_Driver/Src/stm32g4xx_ll_usb.c ****           else
 492:Drivers/STM32G4xx_HAL_Driver/Src/stm32g4xx_ll_usb.c ****           {
 493:Drivers/STM32G4xx_HAL_Driver/Src/stm32g4xx_ll_usb.c ****             /* Set the Double buffer counter for pmabuffer0 */
 494:Drivers/STM32G4xx_HAL_Driver/Src/stm32g4xx_ll_usb.c ****             PCD_SET_EP_DBUF0_CNT(USBx, ep->num, ep->is_in, len);
 495:Drivers/STM32G4xx_HAL_Driver/Src/stm32g4xx_ll_usb.c ****             pmabuffer = ep->pmaaddr0;
 496:Drivers/STM32G4xx_HAL_Driver/Src/stm32g4xx_ll_usb.c **** 
 497:Drivers/STM32G4xx_HAL_Driver/Src/stm32g4xx_ll_usb.c ****             /* Write the user buffer to USB PMA */
 498:Drivers/STM32G4xx_HAL_Driver/Src/stm32g4xx_ll_usb.c ****             USB_WritePMA(USBx, ep->xfer_buff, pmabuffer, (uint16_t)len);
 499:Drivers/STM32G4xx_HAL_Driver/Src/stm32g4xx_ll_usb.c ****             ep->xfer_buff += len;
 500:Drivers/STM32G4xx_HAL_Driver/Src/stm32g4xx_ll_usb.c **** 
 501:Drivers/STM32G4xx_HAL_Driver/Src/stm32g4xx_ll_usb.c ****             if (ep->xfer_len_db > ep->maxpacket)
 502:Drivers/STM32G4xx_HAL_Driver/Src/stm32g4xx_ll_usb.c ****             {
 503:Drivers/STM32G4xx_HAL_Driver/Src/stm32g4xx_ll_usb.c ****               ep->xfer_len_db -= len;
 504:Drivers/STM32G4xx_HAL_Driver/Src/stm32g4xx_ll_usb.c ****             }
 505:Drivers/STM32G4xx_HAL_Driver/Src/stm32g4xx_ll_usb.c ****             else
 506:Drivers/STM32G4xx_HAL_Driver/Src/stm32g4xx_ll_usb.c ****             {
 507:Drivers/STM32G4xx_HAL_Driver/Src/stm32g4xx_ll_usb.c ****               len = ep->xfer_len_db;
 508:Drivers/STM32G4xx_HAL_Driver/Src/stm32g4xx_ll_usb.c ****               ep->xfer_len_db = 0U;
 509:Drivers/STM32G4xx_HAL_Driver/Src/stm32g4xx_ll_usb.c ****             }
 510:Drivers/STM32G4xx_HAL_Driver/Src/stm32g4xx_ll_usb.c **** 
 511:Drivers/STM32G4xx_HAL_Driver/Src/stm32g4xx_ll_usb.c ****             /* Set the Double buffer counter for pmabuffer1 */
 512:Drivers/STM32G4xx_HAL_Driver/Src/stm32g4xx_ll_usb.c ****             PCD_SET_EP_DBUF1_CNT(USBx, ep->num, ep->is_in, len);
 513:Drivers/STM32G4xx_HAL_Driver/Src/stm32g4xx_ll_usb.c ****             pmabuffer = ep->pmaaddr1;
 514:Drivers/STM32G4xx_HAL_Driver/Src/stm32g4xx_ll_usb.c **** 
 515:Drivers/STM32G4xx_HAL_Driver/Src/stm32g4xx_ll_usb.c ****             /* Write the user buffer to USB PMA */
 516:Drivers/STM32G4xx_HAL_Driver/Src/stm32g4xx_ll_usb.c ****             USB_WritePMA(USBx, ep->xfer_buff, pmabuffer, (uint16_t)len);
 517:Drivers/STM32G4xx_HAL_Driver/Src/stm32g4xx_ll_usb.c ****           }
 518:Drivers/STM32G4xx_HAL_Driver/Src/stm32g4xx_ll_usb.c ****         }
 519:Drivers/STM32G4xx_HAL_Driver/Src/stm32g4xx_ll_usb.c ****         /* auto Switch to single buffer mode when transfer <Mps no need to manage in double buffer 
 520:Drivers/STM32G4xx_HAL_Driver/Src/stm32g4xx_ll_usb.c ****         else
 521:Drivers/STM32G4xx_HAL_Driver/Src/stm32g4xx_ll_usb.c ****         {
 522:Drivers/STM32G4xx_HAL_Driver/Src/stm32g4xx_ll_usb.c ****           len = ep->xfer_len_db;
 523:Drivers/STM32G4xx_HAL_Driver/Src/stm32g4xx_ll_usb.c **** 
 524:Drivers/STM32G4xx_HAL_Driver/Src/stm32g4xx_ll_usb.c ****           /* disable double buffer mode for Bulk endpoint */
 525:Drivers/STM32G4xx_HAL_Driver/Src/stm32g4xx_ll_usb.c ****           PCD_CLEAR_BULK_EP_DBUF(USBx, ep->num);
 526:Drivers/STM32G4xx_HAL_Driver/Src/stm32g4xx_ll_usb.c **** 
 527:Drivers/STM32G4xx_HAL_Driver/Src/stm32g4xx_ll_usb.c ****           /* Set Tx count with nbre of byte to be transmitted */
 528:Drivers/STM32G4xx_HAL_Driver/Src/stm32g4xx_ll_usb.c ****           PCD_SET_EP_TX_CNT(USBx, ep->num, len);
 529:Drivers/STM32G4xx_HAL_Driver/Src/stm32g4xx_ll_usb.c ****           pmabuffer = ep->pmaaddr0;
 530:Drivers/STM32G4xx_HAL_Driver/Src/stm32g4xx_ll_usb.c **** 
 531:Drivers/STM32G4xx_HAL_Driver/Src/stm32g4xx_ll_usb.c ****           /* Write the user buffer to USB PMA */
 532:Drivers/STM32G4xx_HAL_Driver/Src/stm32g4xx_ll_usb.c ****           USB_WritePMA(USBx, ep->xfer_buff, pmabuffer, (uint16_t)len);
 533:Drivers/STM32G4xx_HAL_Driver/Src/stm32g4xx_ll_usb.c ****         }
 534:Drivers/STM32G4xx_HAL_Driver/Src/stm32g4xx_ll_usb.c ****       }
ARM GAS  /tmp/cc98KGWN.s 			page 44


 535:Drivers/STM32G4xx_HAL_Driver/Src/stm32g4xx_ll_usb.c ****       else /* Manage isochronous double buffer IN mode */
 536:Drivers/STM32G4xx_HAL_Driver/Src/stm32g4xx_ll_usb.c ****       {
 537:Drivers/STM32G4xx_HAL_Driver/Src/stm32g4xx_ll_usb.c ****         /* Each Time to write in PMA xfer_len_db will */
 538:Drivers/STM32G4xx_HAL_Driver/Src/stm32g4xx_ll_usb.c ****         ep->xfer_len_db -= len;
 539:Drivers/STM32G4xx_HAL_Driver/Src/stm32g4xx_ll_usb.c **** 
 540:Drivers/STM32G4xx_HAL_Driver/Src/stm32g4xx_ll_usb.c ****         /* Fill the data buffer */
 541:Drivers/STM32G4xx_HAL_Driver/Src/stm32g4xx_ll_usb.c ****         if ((PCD_GET_ENDPOINT(USBx, ep->num) & USB_EP_DTOG_TX) != 0U)
 542:Drivers/STM32G4xx_HAL_Driver/Src/stm32g4xx_ll_usb.c ****         {
 543:Drivers/STM32G4xx_HAL_Driver/Src/stm32g4xx_ll_usb.c ****           /* Set the Double buffer counter for pmabuffer1 */
 544:Drivers/STM32G4xx_HAL_Driver/Src/stm32g4xx_ll_usb.c ****           PCD_SET_EP_DBUF1_CNT(USBx, ep->num, ep->is_in, len);
 545:Drivers/STM32G4xx_HAL_Driver/Src/stm32g4xx_ll_usb.c ****           pmabuffer = ep->pmaaddr1;
 546:Drivers/STM32G4xx_HAL_Driver/Src/stm32g4xx_ll_usb.c **** 
 547:Drivers/STM32G4xx_HAL_Driver/Src/stm32g4xx_ll_usb.c ****           /* Write the user buffer to USB PMA */
 548:Drivers/STM32G4xx_HAL_Driver/Src/stm32g4xx_ll_usb.c ****           USB_WritePMA(USBx, ep->xfer_buff, pmabuffer, (uint16_t)len);
 549:Drivers/STM32G4xx_HAL_Driver/Src/stm32g4xx_ll_usb.c ****         }
 550:Drivers/STM32G4xx_HAL_Driver/Src/stm32g4xx_ll_usb.c ****         else
 551:Drivers/STM32G4xx_HAL_Driver/Src/stm32g4xx_ll_usb.c ****         {
 552:Drivers/STM32G4xx_HAL_Driver/Src/stm32g4xx_ll_usb.c ****           /* Set the Double buffer counter for pmabuffer0 */
 553:Drivers/STM32G4xx_HAL_Driver/Src/stm32g4xx_ll_usb.c ****           PCD_SET_EP_DBUF0_CNT(USBx, ep->num, ep->is_in, len);
 554:Drivers/STM32G4xx_HAL_Driver/Src/stm32g4xx_ll_usb.c ****           pmabuffer = ep->pmaaddr0;
 555:Drivers/STM32G4xx_HAL_Driver/Src/stm32g4xx_ll_usb.c **** 
 556:Drivers/STM32G4xx_HAL_Driver/Src/stm32g4xx_ll_usb.c ****           /* Write the user buffer to USB PMA */
 557:Drivers/STM32G4xx_HAL_Driver/Src/stm32g4xx_ll_usb.c ****           USB_WritePMA(USBx, ep->xfer_buff, pmabuffer, (uint16_t)len);
 558:Drivers/STM32G4xx_HAL_Driver/Src/stm32g4xx_ll_usb.c ****         }
 559:Drivers/STM32G4xx_HAL_Driver/Src/stm32g4xx_ll_usb.c ****       }
 560:Drivers/STM32G4xx_HAL_Driver/Src/stm32g4xx_ll_usb.c ****     }
 561:Drivers/STM32G4xx_HAL_Driver/Src/stm32g4xx_ll_usb.c **** #endif /* (USE_USB_DOUBLE_BUFFER == 1U) */
 562:Drivers/STM32G4xx_HAL_Driver/Src/stm32g4xx_ll_usb.c **** 
 563:Drivers/STM32G4xx_HAL_Driver/Src/stm32g4xx_ll_usb.c ****     PCD_SET_EP_TX_STATUS(USBx, ep->num, USB_EP_TX_VALID);
 564:Drivers/STM32G4xx_HAL_Driver/Src/stm32g4xx_ll_usb.c ****   }
 565:Drivers/STM32G4xx_HAL_Driver/Src/stm32g4xx_ll_usb.c ****   else /* OUT endpoint */
 566:Drivers/STM32G4xx_HAL_Driver/Src/stm32g4xx_ll_usb.c ****   {
 567:Drivers/STM32G4xx_HAL_Driver/Src/stm32g4xx_ll_usb.c ****     if (ep->doublebuffer == 0U)
 568:Drivers/STM32G4xx_HAL_Driver/Src/stm32g4xx_ll_usb.c ****     {
 569:Drivers/STM32G4xx_HAL_Driver/Src/stm32g4xx_ll_usb.c ****       if ((ep->xfer_len == 0U) && (ep->type == EP_TYPE_CTRL))
 570:Drivers/STM32G4xx_HAL_Driver/Src/stm32g4xx_ll_usb.c ****       {
 571:Drivers/STM32G4xx_HAL_Driver/Src/stm32g4xx_ll_usb.c ****         /* This is a status out stage set the OUT_STATUS */
 572:Drivers/STM32G4xx_HAL_Driver/Src/stm32g4xx_ll_usb.c ****         PCD_SET_OUT_STATUS(USBx, ep->num);
 573:Drivers/STM32G4xx_HAL_Driver/Src/stm32g4xx_ll_usb.c ****       }
 574:Drivers/STM32G4xx_HAL_Driver/Src/stm32g4xx_ll_usb.c ****       else
 575:Drivers/STM32G4xx_HAL_Driver/Src/stm32g4xx_ll_usb.c ****       {
 576:Drivers/STM32G4xx_HAL_Driver/Src/stm32g4xx_ll_usb.c ****         PCD_CLEAR_OUT_STATUS(USBx, ep->num);
 577:Drivers/STM32G4xx_HAL_Driver/Src/stm32g4xx_ll_usb.c ****       }
 578:Drivers/STM32G4xx_HAL_Driver/Src/stm32g4xx_ll_usb.c **** 
 579:Drivers/STM32G4xx_HAL_Driver/Src/stm32g4xx_ll_usb.c ****       /* Multi packet transfer */
 580:Drivers/STM32G4xx_HAL_Driver/Src/stm32g4xx_ll_usb.c ****       if (ep->xfer_len > ep->maxpacket)
 581:Drivers/STM32G4xx_HAL_Driver/Src/stm32g4xx_ll_usb.c ****       {
 582:Drivers/STM32G4xx_HAL_Driver/Src/stm32g4xx_ll_usb.c ****         ep->xfer_len -= ep->maxpacket;
 583:Drivers/STM32G4xx_HAL_Driver/Src/stm32g4xx_ll_usb.c ****       }
 584:Drivers/STM32G4xx_HAL_Driver/Src/stm32g4xx_ll_usb.c ****       else
 585:Drivers/STM32G4xx_HAL_Driver/Src/stm32g4xx_ll_usb.c ****       {
 586:Drivers/STM32G4xx_HAL_Driver/Src/stm32g4xx_ll_usb.c ****         ep->xfer_len = 0U;
 587:Drivers/STM32G4xx_HAL_Driver/Src/stm32g4xx_ll_usb.c ****       }
 588:Drivers/STM32G4xx_HAL_Driver/Src/stm32g4xx_ll_usb.c ****     }
 589:Drivers/STM32G4xx_HAL_Driver/Src/stm32g4xx_ll_usb.c **** #if (USE_USB_DOUBLE_BUFFER == 1U)
 590:Drivers/STM32G4xx_HAL_Driver/Src/stm32g4xx_ll_usb.c ****     else
 591:Drivers/STM32G4xx_HAL_Driver/Src/stm32g4xx_ll_usb.c ****     {
ARM GAS  /tmp/cc98KGWN.s 			page 45


 592:Drivers/STM32G4xx_HAL_Driver/Src/stm32g4xx_ll_usb.c ****       /* First Transfer Coming From HAL_PCD_EP_Receive & From ISR */
 593:Drivers/STM32G4xx_HAL_Driver/Src/stm32g4xx_ll_usb.c ****       /* Set the Double buffer counter */
 594:Drivers/STM32G4xx_HAL_Driver/Src/stm32g4xx_ll_usb.c ****       if (ep->type == EP_TYPE_BULK)
 595:Drivers/STM32G4xx_HAL_Driver/Src/stm32g4xx_ll_usb.c ****       {
 596:Drivers/STM32G4xx_HAL_Driver/Src/stm32g4xx_ll_usb.c ****         /* Coming from ISR */
 597:Drivers/STM32G4xx_HAL_Driver/Src/stm32g4xx_ll_usb.c ****         if (ep->xfer_count != 0U)
 598:Drivers/STM32G4xx_HAL_Driver/Src/stm32g4xx_ll_usb.c ****         {
 599:Drivers/STM32G4xx_HAL_Driver/Src/stm32g4xx_ll_usb.c ****           /* Update last value to check if there is blocking state */
 600:Drivers/STM32G4xx_HAL_Driver/Src/stm32g4xx_ll_usb.c ****           wEPVal = PCD_GET_ENDPOINT(USBx, ep->num);
 601:Drivers/STM32G4xx_HAL_Driver/Src/stm32g4xx_ll_usb.c **** 
 602:Drivers/STM32G4xx_HAL_Driver/Src/stm32g4xx_ll_usb.c ****           /* Blocking State */
 603:Drivers/STM32G4xx_HAL_Driver/Src/stm32g4xx_ll_usb.c ****           if ((((wEPVal & USB_EP_DTOG_RX) != 0U) && ((wEPVal & USB_EP_DTOG_TX) != 0U)) ||
 604:Drivers/STM32G4xx_HAL_Driver/Src/stm32g4xx_ll_usb.c ****               (((wEPVal & USB_EP_DTOG_RX) == 0U) && ((wEPVal & USB_EP_DTOG_TX) == 0U)))
 605:Drivers/STM32G4xx_HAL_Driver/Src/stm32g4xx_ll_usb.c ****           {
 606:Drivers/STM32G4xx_HAL_Driver/Src/stm32g4xx_ll_usb.c ****             PCD_FREE_USER_BUFFER(USBx, ep->num, 0U);
 607:Drivers/STM32G4xx_HAL_Driver/Src/stm32g4xx_ll_usb.c ****           }
 608:Drivers/STM32G4xx_HAL_Driver/Src/stm32g4xx_ll_usb.c ****         }
 609:Drivers/STM32G4xx_HAL_Driver/Src/stm32g4xx_ll_usb.c ****       }
 610:Drivers/STM32G4xx_HAL_Driver/Src/stm32g4xx_ll_usb.c ****       /* iso out double */
 611:Drivers/STM32G4xx_HAL_Driver/Src/stm32g4xx_ll_usb.c ****       else if (ep->type == EP_TYPE_ISOC)
 612:Drivers/STM32G4xx_HAL_Driver/Src/stm32g4xx_ll_usb.c ****       {
 613:Drivers/STM32G4xx_HAL_Driver/Src/stm32g4xx_ll_usb.c ****         /* Only single packet transfer supported in FS */
 614:Drivers/STM32G4xx_HAL_Driver/Src/stm32g4xx_ll_usb.c ****         ep->xfer_len = 0U;
 615:Drivers/STM32G4xx_HAL_Driver/Src/stm32g4xx_ll_usb.c ****       }
 616:Drivers/STM32G4xx_HAL_Driver/Src/stm32g4xx_ll_usb.c ****       else
 617:Drivers/STM32G4xx_HAL_Driver/Src/stm32g4xx_ll_usb.c ****       {
 618:Drivers/STM32G4xx_HAL_Driver/Src/stm32g4xx_ll_usb.c ****         return HAL_ERROR;
 619:Drivers/STM32G4xx_HAL_Driver/Src/stm32g4xx_ll_usb.c ****       }
 620:Drivers/STM32G4xx_HAL_Driver/Src/stm32g4xx_ll_usb.c ****     }
 621:Drivers/STM32G4xx_HAL_Driver/Src/stm32g4xx_ll_usb.c **** #endif /* (USE_USB_DOUBLE_BUFFER == 1U) */
 622:Drivers/STM32G4xx_HAL_Driver/Src/stm32g4xx_ll_usb.c **** 
 623:Drivers/STM32G4xx_HAL_Driver/Src/stm32g4xx_ll_usb.c ****     PCD_SET_EP_RX_STATUS(USBx, ep->num, USB_EP_RX_VALID);
 624:Drivers/STM32G4xx_HAL_Driver/Src/stm32g4xx_ll_usb.c ****   }
 625:Drivers/STM32G4xx_HAL_Driver/Src/stm32g4xx_ll_usb.c **** 
 626:Drivers/STM32G4xx_HAL_Driver/Src/stm32g4xx_ll_usb.c ****   return HAL_OK;
 627:Drivers/STM32G4xx_HAL_Driver/Src/stm32g4xx_ll_usb.c **** }
 628:Drivers/STM32G4xx_HAL_Driver/Src/stm32g4xx_ll_usb.c **** 
 629:Drivers/STM32G4xx_HAL_Driver/Src/stm32g4xx_ll_usb.c **** 
 630:Drivers/STM32G4xx_HAL_Driver/Src/stm32g4xx_ll_usb.c **** /**
 631:Drivers/STM32G4xx_HAL_Driver/Src/stm32g4xx_ll_usb.c ****   * @brief  USB_EPSetStall set a stall condition over an EP
 632:Drivers/STM32G4xx_HAL_Driver/Src/stm32g4xx_ll_usb.c ****   * @param  USBx Selected device
 633:Drivers/STM32G4xx_HAL_Driver/Src/stm32g4xx_ll_usb.c ****   * @param  ep pointer to endpoint structure
 634:Drivers/STM32G4xx_HAL_Driver/Src/stm32g4xx_ll_usb.c ****   * @retval HAL status
 635:Drivers/STM32G4xx_HAL_Driver/Src/stm32g4xx_ll_usb.c ****   */
 636:Drivers/STM32G4xx_HAL_Driver/Src/stm32g4xx_ll_usb.c **** HAL_StatusTypeDef USB_EPSetStall(USB_TypeDef *USBx, USB_EPTypeDef *ep)
 637:Drivers/STM32G4xx_HAL_Driver/Src/stm32g4xx_ll_usb.c **** {
 1724              		.loc 1 637 1 is_stmt 1 view -0
 1725              		.cfi_startproc
 1726              		@ args = 0, pretend = 0, frame = 0
 1727              		@ frame_needed = 0, uses_anonymous_args = 0
 1728              		@ link register save eliminated.
 638:Drivers/STM32G4xx_HAL_Driver/Src/stm32g4xx_ll_usb.c ****   if (ep->is_in != 0U)
 1729              		.loc 1 638 3 view .LVU585
 1730              		.loc 1 638 9 is_stmt 0 view .LVU586
 1731 0000 4B78     		ldrb	r3, [r1, #1]	@ zero_extendqisi2
 1732              		.loc 1 638 6 view .LVU587
 1733 0002 8BB1     		cbz	r3, .L67
ARM GAS  /tmp/cc98KGWN.s 			page 46


 639:Drivers/STM32G4xx_HAL_Driver/Src/stm32g4xx_ll_usb.c ****   {
 640:Drivers/STM32G4xx_HAL_Driver/Src/stm32g4xx_ll_usb.c ****     PCD_SET_EP_TX_STATUS(USBx, ep->num, USB_EP_TX_STALL);
 1734              		.loc 1 640 5 is_stmt 1 view .LVU588
 1735              	.LBB66:
 1736              		.loc 1 640 5 view .LVU589
 1737              		.loc 1 640 5 view .LVU590
 1738 0004 0A78     		ldrb	r2, [r1]	@ zero_extendqisi2
 1739 0006 30F82230 		ldrh	r3, [r0, r2, lsl #2]
 1740 000a 9BB2     		uxth	r3, r3
 1741 000c 23F4E043 		bic	r3, r3, #28672
 1742 0010 23F04003 		bic	r3, r3, #64
 1743              	.LVL188:
 1744              		.loc 1 640 5 view .LVU591
 1745              		.loc 1 640 5 view .LVU592
 1746 0014 83F01003 		eor	r3, r3, #16
 1747              	.LVL189:
 1748              		.loc 1 640 5 view .LVU593
 1749              		.loc 1 640 5 view .LVU594
 1750 0018 43F40043 		orr	r3, r3, #32768
 1751              	.LVL190:
 1752              		.loc 1 640 5 is_stmt 0 view .LVU595
 1753 001c 43F08003 		orr	r3, r3, #128
 1754 0020 20F82230 		strh	r3, [r0, r2, lsl #2]	@ movhi
 1755              	.LBE66:
 1756              		.loc 1 640 5 is_stmt 1 view .LVU596
 1757              	.L68:
 641:Drivers/STM32G4xx_HAL_Driver/Src/stm32g4xx_ll_usb.c ****   }
 642:Drivers/STM32G4xx_HAL_Driver/Src/stm32g4xx_ll_usb.c ****   else
 643:Drivers/STM32G4xx_HAL_Driver/Src/stm32g4xx_ll_usb.c ****   {
 644:Drivers/STM32G4xx_HAL_Driver/Src/stm32g4xx_ll_usb.c ****     PCD_SET_EP_RX_STATUS(USBx, ep->num, USB_EP_RX_STALL);
 1758              		.loc 1 644 5 discriminator 7 view .LVU597
 645:Drivers/STM32G4xx_HAL_Driver/Src/stm32g4xx_ll_usb.c ****   }
 646:Drivers/STM32G4xx_HAL_Driver/Src/stm32g4xx_ll_usb.c **** 
 647:Drivers/STM32G4xx_HAL_Driver/Src/stm32g4xx_ll_usb.c ****   return HAL_OK;
 1759              		.loc 1 647 3 discriminator 7 view .LVU598
 648:Drivers/STM32G4xx_HAL_Driver/Src/stm32g4xx_ll_usb.c **** }
 1760              		.loc 1 648 1 is_stmt 0 discriminator 7 view .LVU599
 1761 0024 0020     		movs	r0, #0
 1762              	.LVL191:
 1763              		.loc 1 648 1 discriminator 7 view .LVU600
 1764 0026 7047     		bx	lr
 1765              	.LVL192:
 1766              	.L67:
 644:Drivers/STM32G4xx_HAL_Driver/Src/stm32g4xx_ll_usb.c ****   }
 1767              		.loc 1 644 5 is_stmt 1 view .LVU601
 1768              	.LBB67:
 644:Drivers/STM32G4xx_HAL_Driver/Src/stm32g4xx_ll_usb.c ****   }
 1769              		.loc 1 644 5 view .LVU602
 644:Drivers/STM32G4xx_HAL_Driver/Src/stm32g4xx_ll_usb.c ****   }
 1770              		.loc 1 644 5 view .LVU603
 1771 0028 0A78     		ldrb	r2, [r1]	@ zero_extendqisi2
 1772 002a 30F82230 		ldrh	r3, [r0, r2, lsl #2]
 1773 002e 9BB2     		uxth	r3, r3
 1774 0030 23F48043 		bic	r3, r3, #16384
 1775 0034 23F07003 		bic	r3, r3, #112
 1776              	.LVL193:
 644:Drivers/STM32G4xx_HAL_Driver/Src/stm32g4xx_ll_usb.c ****   }
ARM GAS  /tmp/cc98KGWN.s 			page 47


 1777              		.loc 1 644 5 view .LVU604
 644:Drivers/STM32G4xx_HAL_Driver/Src/stm32g4xx_ll_usb.c ****   }
 1778              		.loc 1 644 5 view .LVU605
 1779 0038 83F48053 		eor	r3, r3, #4096
 1780              	.LVL194:
 644:Drivers/STM32G4xx_HAL_Driver/Src/stm32g4xx_ll_usb.c ****   }
 1781              		.loc 1 644 5 view .LVU606
 644:Drivers/STM32G4xx_HAL_Driver/Src/stm32g4xx_ll_usb.c ****   }
 1782              		.loc 1 644 5 view .LVU607
 1783 003c 43F40043 		orr	r3, r3, #32768
 1784              	.LVL195:
 644:Drivers/STM32G4xx_HAL_Driver/Src/stm32g4xx_ll_usb.c ****   }
 1785              		.loc 1 644 5 is_stmt 0 view .LVU608
 1786 0040 43F08003 		orr	r3, r3, #128
 1787 0044 20F82230 		strh	r3, [r0, r2, lsl #2]	@ movhi
 1788 0048 ECE7     		b	.L68
 1789              	.LBE67:
 1790              		.cfi_endproc
 1791              	.LFE339:
 1793              		.section	.text.USB_EPClearStall,"ax",%progbits
 1794              		.align	1
 1795              		.global	USB_EPClearStall
 1796              		.syntax unified
 1797              		.thumb
 1798              		.thumb_func
 1799              		.fpu fpv4-sp-d16
 1801              	USB_EPClearStall:
 1802              	.LVL196:
 1803              	.LFB340:
 649:Drivers/STM32G4xx_HAL_Driver/Src/stm32g4xx_ll_usb.c **** 
 650:Drivers/STM32G4xx_HAL_Driver/Src/stm32g4xx_ll_usb.c **** /**
 651:Drivers/STM32G4xx_HAL_Driver/Src/stm32g4xx_ll_usb.c ****   * @brief  USB_EPClearStall Clear a stall condition over an EP
 652:Drivers/STM32G4xx_HAL_Driver/Src/stm32g4xx_ll_usb.c ****   * @param  USBx Selected device
 653:Drivers/STM32G4xx_HAL_Driver/Src/stm32g4xx_ll_usb.c ****   * @param  ep pointer to endpoint structure
 654:Drivers/STM32G4xx_HAL_Driver/Src/stm32g4xx_ll_usb.c ****   * @retval HAL status
 655:Drivers/STM32G4xx_HAL_Driver/Src/stm32g4xx_ll_usb.c ****   */
 656:Drivers/STM32G4xx_HAL_Driver/Src/stm32g4xx_ll_usb.c **** HAL_StatusTypeDef USB_EPClearStall(USB_TypeDef *USBx, USB_EPTypeDef *ep)
 657:Drivers/STM32G4xx_HAL_Driver/Src/stm32g4xx_ll_usb.c **** {
 1804              		.loc 1 657 1 is_stmt 1 view -0
 1805              		.cfi_startproc
 1806              		@ args = 0, pretend = 0, frame = 0
 1807              		@ frame_needed = 0, uses_anonymous_args = 0
 1808              		@ link register save eliminated.
 658:Drivers/STM32G4xx_HAL_Driver/Src/stm32g4xx_ll_usb.c ****   if (ep->is_in != 0U)
 1809              		.loc 1 658 3 view .LVU610
 1810              		.loc 1 658 9 is_stmt 0 view .LVU611
 1811 0000 4B78     		ldrb	r3, [r1, #1]	@ zero_extendqisi2
 1812              		.loc 1 658 6 view .LVU612
 1813 0002 33B3     		cbz	r3, .L70
 659:Drivers/STM32G4xx_HAL_Driver/Src/stm32g4xx_ll_usb.c ****   {
 660:Drivers/STM32G4xx_HAL_Driver/Src/stm32g4xx_ll_usb.c ****     PCD_CLEAR_TX_DTOG(USBx, ep->num);
 1814              		.loc 1 660 5 is_stmt 1 view .LVU613
 1815              	.LBB68:
 1816              		.loc 1 660 5 view .LVU614
 1817              		.loc 1 660 5 view .LVU615
 1818 0004 0A78     		ldrb	r2, [r1]	@ zero_extendqisi2
 1819 0006 30F82230 		ldrh	r3, [r0, r2, lsl #2]
ARM GAS  /tmp/cc98KGWN.s 			page 48


 1820              	.LVL197:
 1821              		.loc 1 660 5 view .LVU616
 1822 000a 13F0400F 		tst	r3, #64
 1823 000e 0CD0     		beq	.L71
 1824              		.loc 1 660 5 discriminator 1 view .LVU617
 1825              	.LBB69:
 1826              		.loc 1 660 5 discriminator 1 view .LVU618
 1827              		.loc 1 660 5 discriminator 1 view .LVU619
 1828 0010 30F82230 		ldrh	r3, [r0, r2, lsl #2]
 1829              	.LVL198:
 1830              		.loc 1 660 5 is_stmt 0 discriminator 1 view .LVU620
 1831 0014 9BB2     		uxth	r3, r3
 1832 0016 23F4E043 		bic	r3, r3, #28672
 1833 001a 23F07003 		bic	r3, r3, #112
 1834              	.LVL199:
 1835              		.loc 1 660 5 is_stmt 1 discriminator 1 view .LVU621
 1836 001e 43F40043 		orr	r3, r3, #32768
 1837              	.LVL200:
 1838              		.loc 1 660 5 is_stmt 0 discriminator 1 view .LVU622
 1839 0022 43F0C003 		orr	r3, r3, #192
 1840 0026 20F82230 		strh	r3, [r0, r2, lsl #2]	@ movhi
 1841              	.L71:
 1842              		.loc 1 660 5 discriminator 1 view .LVU623
 1843              	.LBE69:
 1844              		.loc 1 660 5 is_stmt 1 discriminator 3 view .LVU624
 1845              	.LBE68:
 1846              		.loc 1 660 5 discriminator 3 view .LVU625
 661:Drivers/STM32G4xx_HAL_Driver/Src/stm32g4xx_ll_usb.c **** 
 662:Drivers/STM32G4xx_HAL_Driver/Src/stm32g4xx_ll_usb.c ****     if (ep->type != EP_TYPE_ISOC)
 1847              		.loc 1 662 5 discriminator 3 view .LVU626
 1848              		.loc 1 662 11 is_stmt 0 discriminator 3 view .LVU627
 1849 002a CB78     		ldrb	r3, [r1, #3]	@ zero_extendqisi2
 1850              		.loc 1 662 8 discriminator 3 view .LVU628
 1851 002c 012B     		cmp	r3, #1
 1852 002e 33D0     		beq	.L72
 663:Drivers/STM32G4xx_HAL_Driver/Src/stm32g4xx_ll_usb.c ****     {
 664:Drivers/STM32G4xx_HAL_Driver/Src/stm32g4xx_ll_usb.c ****       /* Configure NAK status for the Endpoint */
 665:Drivers/STM32G4xx_HAL_Driver/Src/stm32g4xx_ll_usb.c ****       PCD_SET_EP_TX_STATUS(USBx, ep->num, USB_EP_TX_NAK);
 1853              		.loc 1 665 7 is_stmt 1 view .LVU629
 1854              	.LBB70:
 1855              		.loc 1 665 7 view .LVU630
 1856              		.loc 1 665 7 view .LVU631
 1857 0030 0A78     		ldrb	r2, [r1]	@ zero_extendqisi2
 1858 0032 30F82230 		ldrh	r3, [r0, r2, lsl #2]
 1859 0036 9BB2     		uxth	r3, r3
 1860 0038 23F4E043 		bic	r3, r3, #28672
 1861 003c 23F04003 		bic	r3, r3, #64
 1862              	.LVL201:
 1863              		.loc 1 665 7 view .LVU632
 1864              		.loc 1 665 7 view .LVU633
 1865              		.loc 1 665 7 view .LVU634
 1866 0040 83F02003 		eor	r3, r3, #32
 1867              	.LVL202:
 1868              		.loc 1 665 7 view .LVU635
 1869 0044 43F40043 		orr	r3, r3, #32768
 1870              	.LVL203:
 1871              		.loc 1 665 7 is_stmt 0 view .LVU636
ARM GAS  /tmp/cc98KGWN.s 			page 49


 1872 0048 43F08003 		orr	r3, r3, #128
 1873 004c 20F82230 		strh	r3, [r0, r2, lsl #2]	@ movhi
 1874 0050 22E0     		b	.L72
 1875              	.L70:
 1876              		.loc 1 665 7 view .LVU637
 1877              	.LBE70:
 666:Drivers/STM32G4xx_HAL_Driver/Src/stm32g4xx_ll_usb.c ****     }
 667:Drivers/STM32G4xx_HAL_Driver/Src/stm32g4xx_ll_usb.c ****   }
 668:Drivers/STM32G4xx_HAL_Driver/Src/stm32g4xx_ll_usb.c ****   else
 669:Drivers/STM32G4xx_HAL_Driver/Src/stm32g4xx_ll_usb.c ****   {
 670:Drivers/STM32G4xx_HAL_Driver/Src/stm32g4xx_ll_usb.c ****     PCD_CLEAR_RX_DTOG(USBx, ep->num);
 1878              		.loc 1 670 5 is_stmt 1 view .LVU638
 1879              	.LBB71:
 1880              		.loc 1 670 5 view .LVU639
 1881              		.loc 1 670 5 view .LVU640
 1882 0052 0A78     		ldrb	r2, [r1]	@ zero_extendqisi2
 1883 0054 30F82230 		ldrh	r3, [r0, r2, lsl #2]
 1884              	.LVL204:
 1885              		.loc 1 670 5 view .LVU641
 1886 0058 13F4804F 		tst	r3, #16384
 1887 005c 0CD0     		beq	.L73
 1888              		.loc 1 670 5 discriminator 1 view .LVU642
 1889              	.LBB72:
 1890              		.loc 1 670 5 discriminator 1 view .LVU643
 1891              		.loc 1 670 5 discriminator 1 view .LVU644
 1892 005e 30F82230 		ldrh	r3, [r0, r2, lsl #2]
 1893              	.LVL205:
 1894              		.loc 1 670 5 is_stmt 0 discriminator 1 view .LVU645
 1895 0062 9BB2     		uxth	r3, r3
 1896 0064 23F4E043 		bic	r3, r3, #28672
 1897 0068 23F07003 		bic	r3, r3, #112
 1898              	.LVL206:
 1899              		.loc 1 670 5 is_stmt 1 discriminator 1 view .LVU646
 1900 006c 43F44043 		orr	r3, r3, #49152
 1901              	.LVL207:
 1902              		.loc 1 670 5 is_stmt 0 discriminator 1 view .LVU647
 1903 0070 43F08003 		orr	r3, r3, #128
 1904 0074 20F82230 		strh	r3, [r0, r2, lsl #2]	@ movhi
 1905              	.L73:
 1906              		.loc 1 670 5 discriminator 1 view .LVU648
 1907              	.LBE72:
 1908              		.loc 1 670 5 is_stmt 1 discriminator 3 view .LVU649
 1909              	.LBE71:
 1910              		.loc 1 670 5 discriminator 3 view .LVU650
 671:Drivers/STM32G4xx_HAL_Driver/Src/stm32g4xx_ll_usb.c **** 
 672:Drivers/STM32G4xx_HAL_Driver/Src/stm32g4xx_ll_usb.c ****     /* Configure VALID status for the Endpoint */
 673:Drivers/STM32G4xx_HAL_Driver/Src/stm32g4xx_ll_usb.c ****     PCD_SET_EP_RX_STATUS(USBx, ep->num, USB_EP_RX_VALID);
 1911              		.loc 1 673 5 discriminator 3 view .LVU651
 1912              	.LBB73:
 1913              		.loc 1 673 5 discriminator 3 view .LVU652
 1914              		.loc 1 673 5 discriminator 3 view .LVU653
 1915 0078 0A78     		ldrb	r2, [r1]	@ zero_extendqisi2
 1916 007a 30F82230 		ldrh	r3, [r0, r2, lsl #2]
 1917 007e 9BB2     		uxth	r3, r3
 1918 0080 23F48043 		bic	r3, r3, #16384
 1919 0084 23F07003 		bic	r3, r3, #112
 1920              	.LVL208:
ARM GAS  /tmp/cc98KGWN.s 			page 50


 1921              		.loc 1 673 5 discriminator 3 view .LVU654
 1922              		.loc 1 673 5 discriminator 3 view .LVU655
 1923              		.loc 1 673 5 discriminator 3 view .LVU656
 1924              		.loc 1 673 5 discriminator 3 view .LVU657
 1925 0088 83F44053 		eor	r3, r3, #12288
 1926              	.LVL209:
 1927              		.loc 1 673 5 discriminator 3 view .LVU658
 1928 008c 43F40043 		orr	r3, r3, #32768
 1929              	.LVL210:
 1930              		.loc 1 673 5 is_stmt 0 discriminator 3 view .LVU659
 1931 0090 43F08003 		orr	r3, r3, #128
 1932 0094 20F82230 		strh	r3, [r0, r2, lsl #2]	@ movhi
 1933              	.L72:
 1934              		.loc 1 673 5 discriminator 3 view .LVU660
 1935              	.LBE73:
 1936              		.loc 1 673 5 is_stmt 1 discriminator 7 view .LVU661
 674:Drivers/STM32G4xx_HAL_Driver/Src/stm32g4xx_ll_usb.c ****   }
 675:Drivers/STM32G4xx_HAL_Driver/Src/stm32g4xx_ll_usb.c **** 
 676:Drivers/STM32G4xx_HAL_Driver/Src/stm32g4xx_ll_usb.c ****   return HAL_OK;
 1937              		.loc 1 676 3 discriminator 7 view .LVU662
 677:Drivers/STM32G4xx_HAL_Driver/Src/stm32g4xx_ll_usb.c **** }
 1938              		.loc 1 677 1 is_stmt 0 discriminator 7 view .LVU663
 1939 0098 0020     		movs	r0, #0
 1940              	.LVL211:
 1941              		.loc 1 677 1 discriminator 7 view .LVU664
 1942 009a 7047     		bx	lr
 1943              		.cfi_endproc
 1944              	.LFE340:
 1946              		.section	.text.USB_EPStopXfer,"ax",%progbits
 1947              		.align	1
 1948              		.global	USB_EPStopXfer
 1949              		.syntax unified
 1950              		.thumb
 1951              		.thumb_func
 1952              		.fpu fpv4-sp-d16
 1954              	USB_EPStopXfer:
 1955              	.LVL212:
 1956              	.LFB341:
 678:Drivers/STM32G4xx_HAL_Driver/Src/stm32g4xx_ll_usb.c **** 
 679:Drivers/STM32G4xx_HAL_Driver/Src/stm32g4xx_ll_usb.c **** /**
 680:Drivers/STM32G4xx_HAL_Driver/Src/stm32g4xx_ll_usb.c ****    * @brief  USB_EPStoptXfer  Stop transfer on an EP
 681:Drivers/STM32G4xx_HAL_Driver/Src/stm32g4xx_ll_usb.c ****    * @param  USBx  usb device instance
 682:Drivers/STM32G4xx_HAL_Driver/Src/stm32g4xx_ll_usb.c ****    * @param  ep pointer to endpoint structure
 683:Drivers/STM32G4xx_HAL_Driver/Src/stm32g4xx_ll_usb.c ****    * @retval HAL status
 684:Drivers/STM32G4xx_HAL_Driver/Src/stm32g4xx_ll_usb.c ****    */
 685:Drivers/STM32G4xx_HAL_Driver/Src/stm32g4xx_ll_usb.c **** HAL_StatusTypeDef USB_EPStopXfer(USB_TypeDef *USBx, USB_EPTypeDef *ep)
 686:Drivers/STM32G4xx_HAL_Driver/Src/stm32g4xx_ll_usb.c **** {
 1957              		.loc 1 686 1 is_stmt 1 view -0
 1958              		.cfi_startproc
 1959              		@ args = 0, pretend = 0, frame = 0
 1960              		@ frame_needed = 0, uses_anonymous_args = 0
 1961              		@ link register save eliminated.
 687:Drivers/STM32G4xx_HAL_Driver/Src/stm32g4xx_ll_usb.c ****   /* IN endpoint */
 688:Drivers/STM32G4xx_HAL_Driver/Src/stm32g4xx_ll_usb.c ****   if (ep->is_in == 1U)
 1962              		.loc 1 688 3 view .LVU666
 1963              		.loc 1 688 9 is_stmt 0 view .LVU667
 1964 0000 4B78     		ldrb	r3, [r1, #1]	@ zero_extendqisi2
ARM GAS  /tmp/cc98KGWN.s 			page 51


 1965              		.loc 1 688 6 view .LVU668
 1966 0002 012B     		cmp	r3, #1
 1967 0004 16D0     		beq	.L79
 689:Drivers/STM32G4xx_HAL_Driver/Src/stm32g4xx_ll_usb.c ****   {
 690:Drivers/STM32G4xx_HAL_Driver/Src/stm32g4xx_ll_usb.c ****     if (ep->doublebuffer == 0U)
 691:Drivers/STM32G4xx_HAL_Driver/Src/stm32g4xx_ll_usb.c ****     {
 692:Drivers/STM32G4xx_HAL_Driver/Src/stm32g4xx_ll_usb.c ****       if (ep->type != EP_TYPE_ISOC)
 693:Drivers/STM32G4xx_HAL_Driver/Src/stm32g4xx_ll_usb.c ****       {
 694:Drivers/STM32G4xx_HAL_Driver/Src/stm32g4xx_ll_usb.c ****         /* Configure NAK status for the Endpoint */
 695:Drivers/STM32G4xx_HAL_Driver/Src/stm32g4xx_ll_usb.c ****         PCD_SET_EP_TX_STATUS(USBx, ep->num, USB_EP_TX_NAK);
 696:Drivers/STM32G4xx_HAL_Driver/Src/stm32g4xx_ll_usb.c ****       }
 697:Drivers/STM32G4xx_HAL_Driver/Src/stm32g4xx_ll_usb.c ****       else
 698:Drivers/STM32G4xx_HAL_Driver/Src/stm32g4xx_ll_usb.c ****       {
 699:Drivers/STM32G4xx_HAL_Driver/Src/stm32g4xx_ll_usb.c ****         /* Configure TX Endpoint to disabled state */
 700:Drivers/STM32G4xx_HAL_Driver/Src/stm32g4xx_ll_usb.c ****         PCD_SET_EP_TX_STATUS(USBx, ep->num, USB_EP_TX_DIS);
 701:Drivers/STM32G4xx_HAL_Driver/Src/stm32g4xx_ll_usb.c ****       }
 702:Drivers/STM32G4xx_HAL_Driver/Src/stm32g4xx_ll_usb.c ****     }
 703:Drivers/STM32G4xx_HAL_Driver/Src/stm32g4xx_ll_usb.c ****   }
 704:Drivers/STM32G4xx_HAL_Driver/Src/stm32g4xx_ll_usb.c ****   else /* OUT endpoint */
 705:Drivers/STM32G4xx_HAL_Driver/Src/stm32g4xx_ll_usb.c ****   {
 706:Drivers/STM32G4xx_HAL_Driver/Src/stm32g4xx_ll_usb.c ****     if (ep->doublebuffer == 0U)
 1968              		.loc 1 706 5 is_stmt 1 view .LVU669
 1969              		.loc 1 706 11 is_stmt 0 view .LVU670
 1970 0006 0B7B     		ldrb	r3, [r1, #12]	@ zero_extendqisi2
 1971              		.loc 1 706 8 view .LVU671
 1972 0008 93B9     		cbnz	r3, .L76
 707:Drivers/STM32G4xx_HAL_Driver/Src/stm32g4xx_ll_usb.c ****     {
 708:Drivers/STM32G4xx_HAL_Driver/Src/stm32g4xx_ll_usb.c ****       if (ep->type != EP_TYPE_ISOC)
 1973              		.loc 1 708 7 is_stmt 1 view .LVU672
 1974              		.loc 1 708 13 is_stmt 0 view .LVU673
 1975 000a CB78     		ldrb	r3, [r1, #3]	@ zero_extendqisi2
 1976              		.loc 1 708 10 view .LVU674
 1977 000c 012B     		cmp	r3, #1
 1978 000e 37D0     		beq	.L78
 709:Drivers/STM32G4xx_HAL_Driver/Src/stm32g4xx_ll_usb.c ****       {
 710:Drivers/STM32G4xx_HAL_Driver/Src/stm32g4xx_ll_usb.c ****         /* Configure NAK status for the Endpoint */
 711:Drivers/STM32G4xx_HAL_Driver/Src/stm32g4xx_ll_usb.c ****         PCD_SET_EP_RX_STATUS(USBx, ep->num, USB_EP_RX_NAK);
 1979              		.loc 1 711 9 is_stmt 1 view .LVU675
 1980              	.LBB74:
 1981              		.loc 1 711 9 view .LVU676
 1982              		.loc 1 711 9 view .LVU677
 1983 0010 0A78     		ldrb	r2, [r1]	@ zero_extendqisi2
 1984 0012 30F82230 		ldrh	r3, [r0, r2, lsl #2]
 1985 0016 9BB2     		uxth	r3, r3
 1986 0018 23F48043 		bic	r3, r3, #16384
 1987 001c 23F07003 		bic	r3, r3, #112
 1988              	.LVL213:
 1989              		.loc 1 711 9 view .LVU678
 1990              		.loc 1 711 9 view .LVU679
 1991              		.loc 1 711 9 view .LVU680
 1992 0020 83F40053 		eor	r3, r3, #8192
 1993              	.LVL214:
 1994              		.loc 1 711 9 view .LVU681
 1995 0024 43F40043 		orr	r3, r3, #32768
 1996              	.LVL215:
 1997              		.loc 1 711 9 is_stmt 0 view .LVU682
 1998 0028 43F08003 		orr	r3, r3, #128
ARM GAS  /tmp/cc98KGWN.s 			page 52


 1999 002c 20F82230 		strh	r3, [r0, r2, lsl #2]	@ movhi
 2000              	.LBE74:
 2001              		.loc 1 711 9 is_stmt 1 view .LVU683
 2002              	.L76:
 712:Drivers/STM32G4xx_HAL_Driver/Src/stm32g4xx_ll_usb.c ****       }
 713:Drivers/STM32G4xx_HAL_Driver/Src/stm32g4xx_ll_usb.c ****       else
 714:Drivers/STM32G4xx_HAL_Driver/Src/stm32g4xx_ll_usb.c ****       {
 715:Drivers/STM32G4xx_HAL_Driver/Src/stm32g4xx_ll_usb.c ****         /* Configure RX Endpoint to disabled state */
 716:Drivers/STM32G4xx_HAL_Driver/Src/stm32g4xx_ll_usb.c ****         PCD_SET_EP_RX_STATUS(USBx, ep->num, USB_EP_RX_DIS);
 2003              		.loc 1 716 9 discriminator 7 view .LVU684
 717:Drivers/STM32G4xx_HAL_Driver/Src/stm32g4xx_ll_usb.c ****       }
 718:Drivers/STM32G4xx_HAL_Driver/Src/stm32g4xx_ll_usb.c ****     }
 719:Drivers/STM32G4xx_HAL_Driver/Src/stm32g4xx_ll_usb.c ****   }
 720:Drivers/STM32G4xx_HAL_Driver/Src/stm32g4xx_ll_usb.c **** 
 721:Drivers/STM32G4xx_HAL_Driver/Src/stm32g4xx_ll_usb.c ****   return HAL_OK;
 2004              		.loc 1 721 3 discriminator 7 view .LVU685
 722:Drivers/STM32G4xx_HAL_Driver/Src/stm32g4xx_ll_usb.c **** }
 2005              		.loc 1 722 1 is_stmt 0 discriminator 7 view .LVU686
 2006 0030 0020     		movs	r0, #0
 2007              	.LVL216:
 2008              		.loc 1 722 1 discriminator 7 view .LVU687
 2009 0032 7047     		bx	lr
 2010              	.LVL217:
 2011              	.L79:
 690:Drivers/STM32G4xx_HAL_Driver/Src/stm32g4xx_ll_usb.c ****     {
 2012              		.loc 1 690 5 is_stmt 1 view .LVU688
 690:Drivers/STM32G4xx_HAL_Driver/Src/stm32g4xx_ll_usb.c ****     {
 2013              		.loc 1 690 11 is_stmt 0 view .LVU689
 2014 0034 0B7B     		ldrb	r3, [r1, #12]	@ zero_extendqisi2
 690:Drivers/STM32G4xx_HAL_Driver/Src/stm32g4xx_ll_usb.c ****     {
 2015              		.loc 1 690 8 view .LVU690
 2016 0036 002B     		cmp	r3, #0
 2017 0038 FAD1     		bne	.L76
 692:Drivers/STM32G4xx_HAL_Driver/Src/stm32g4xx_ll_usb.c ****       {
 2018              		.loc 1 692 7 is_stmt 1 view .LVU691
 692:Drivers/STM32G4xx_HAL_Driver/Src/stm32g4xx_ll_usb.c ****       {
 2019              		.loc 1 692 13 is_stmt 0 view .LVU692
 2020 003a CB78     		ldrb	r3, [r1, #3]	@ zero_extendqisi2
 692:Drivers/STM32G4xx_HAL_Driver/Src/stm32g4xx_ll_usb.c ****       {
 2021              		.loc 1 692 10 view .LVU693
 2022 003c 012B     		cmp	r3, #1
 2023 003e 10D0     		beq	.L77
 695:Drivers/STM32G4xx_HAL_Driver/Src/stm32g4xx_ll_usb.c ****       }
 2024              		.loc 1 695 9 is_stmt 1 view .LVU694
 2025              	.LBB75:
 695:Drivers/STM32G4xx_HAL_Driver/Src/stm32g4xx_ll_usb.c ****       }
 2026              		.loc 1 695 9 view .LVU695
 695:Drivers/STM32G4xx_HAL_Driver/Src/stm32g4xx_ll_usb.c ****       }
 2027              		.loc 1 695 9 view .LVU696
 2028 0040 0A78     		ldrb	r2, [r1]	@ zero_extendqisi2
 2029 0042 30F82230 		ldrh	r3, [r0, r2, lsl #2]
 2030 0046 9BB2     		uxth	r3, r3
 2031 0048 23F4E043 		bic	r3, r3, #28672
 2032 004c 23F04003 		bic	r3, r3, #64
 2033              	.LVL218:
 695:Drivers/STM32G4xx_HAL_Driver/Src/stm32g4xx_ll_usb.c ****       }
 2034              		.loc 1 695 9 view .LVU697
ARM GAS  /tmp/cc98KGWN.s 			page 53


 695:Drivers/STM32G4xx_HAL_Driver/Src/stm32g4xx_ll_usb.c ****       }
 2035              		.loc 1 695 9 view .LVU698
 695:Drivers/STM32G4xx_HAL_Driver/Src/stm32g4xx_ll_usb.c ****       }
 2036              		.loc 1 695 9 view .LVU699
 2037 0050 83F02003 		eor	r3, r3, #32
 2038              	.LVL219:
 695:Drivers/STM32G4xx_HAL_Driver/Src/stm32g4xx_ll_usb.c ****       }
 2039              		.loc 1 695 9 view .LVU700
 2040 0054 43F40043 		orr	r3, r3, #32768
 2041              	.LVL220:
 695:Drivers/STM32G4xx_HAL_Driver/Src/stm32g4xx_ll_usb.c ****       }
 2042              		.loc 1 695 9 is_stmt 0 view .LVU701
 2043 0058 43F08003 		orr	r3, r3, #128
 2044 005c 20F82230 		strh	r3, [r0, r2, lsl #2]	@ movhi
 2045              	.LBE75:
 695:Drivers/STM32G4xx_HAL_Driver/Src/stm32g4xx_ll_usb.c ****       }
 2046              		.loc 1 695 9 is_stmt 1 view .LVU702
 2047 0060 E6E7     		b	.L76
 2048              	.L77:
 700:Drivers/STM32G4xx_HAL_Driver/Src/stm32g4xx_ll_usb.c ****       }
 2049              		.loc 1 700 9 view .LVU703
 2050              	.LBB76:
 700:Drivers/STM32G4xx_HAL_Driver/Src/stm32g4xx_ll_usb.c ****       }
 2051              		.loc 1 700 9 view .LVU704
 700:Drivers/STM32G4xx_HAL_Driver/Src/stm32g4xx_ll_usb.c ****       }
 2052              		.loc 1 700 9 view .LVU705
 2053 0062 0A78     		ldrb	r2, [r1]	@ zero_extendqisi2
 2054 0064 30F82230 		ldrh	r3, [r0, r2, lsl #2]
 2055 0068 9BB2     		uxth	r3, r3
 2056 006a 23F4E043 		bic	r3, r3, #28672
 2057 006e 23F04003 		bic	r3, r3, #64
 2058              	.LVL221:
 700:Drivers/STM32G4xx_HAL_Driver/Src/stm32g4xx_ll_usb.c ****       }
 2059              		.loc 1 700 9 view .LVU706
 700:Drivers/STM32G4xx_HAL_Driver/Src/stm32g4xx_ll_usb.c ****       }
 2060              		.loc 1 700 9 view .LVU707
 700:Drivers/STM32G4xx_HAL_Driver/Src/stm32g4xx_ll_usb.c ****       }
 2061              		.loc 1 700 9 view .LVU708
 2062 0072 43F40043 		orr	r3, r3, #32768
 2063              	.LVL222:
 700:Drivers/STM32G4xx_HAL_Driver/Src/stm32g4xx_ll_usb.c ****       }
 2064              		.loc 1 700 9 is_stmt 0 view .LVU709
 2065 0076 43F08003 		orr	r3, r3, #128
 2066 007a 20F82230 		strh	r3, [r0, r2, lsl #2]	@ movhi
 2067 007e D7E7     		b	.L76
 2068              	.L78:
 700:Drivers/STM32G4xx_HAL_Driver/Src/stm32g4xx_ll_usb.c ****       }
 2069              		.loc 1 700 9 view .LVU710
 2070              	.LBE76:
 716:Drivers/STM32G4xx_HAL_Driver/Src/stm32g4xx_ll_usb.c ****       }
 2071              		.loc 1 716 9 is_stmt 1 view .LVU711
 2072              	.LBB77:
 716:Drivers/STM32G4xx_HAL_Driver/Src/stm32g4xx_ll_usb.c ****       }
 2073              		.loc 1 716 9 view .LVU712
 716:Drivers/STM32G4xx_HAL_Driver/Src/stm32g4xx_ll_usb.c ****       }
 2074              		.loc 1 716 9 view .LVU713
 2075 0080 0A78     		ldrb	r2, [r1]	@ zero_extendqisi2
ARM GAS  /tmp/cc98KGWN.s 			page 54


 2076 0082 30F82230 		ldrh	r3, [r0, r2, lsl #2]
 2077 0086 9BB2     		uxth	r3, r3
 2078 0088 23F48043 		bic	r3, r3, #16384
 2079 008c 23F07003 		bic	r3, r3, #112
 2080              	.LVL223:
 716:Drivers/STM32G4xx_HAL_Driver/Src/stm32g4xx_ll_usb.c ****       }
 2081              		.loc 1 716 9 view .LVU714
 716:Drivers/STM32G4xx_HAL_Driver/Src/stm32g4xx_ll_usb.c ****       }
 2082              		.loc 1 716 9 view .LVU715
 716:Drivers/STM32G4xx_HAL_Driver/Src/stm32g4xx_ll_usb.c ****       }
 2083              		.loc 1 716 9 view .LVU716
 2084 0090 43F40043 		orr	r3, r3, #32768
 2085              	.LVL224:
 716:Drivers/STM32G4xx_HAL_Driver/Src/stm32g4xx_ll_usb.c ****       }
 2086              		.loc 1 716 9 is_stmt 0 view .LVU717
 2087 0094 43F08003 		orr	r3, r3, #128
 2088 0098 20F82230 		strh	r3, [r0, r2, lsl #2]	@ movhi
 2089 009c C8E7     		b	.L76
 2090              	.LBE77:
 2091              		.cfi_endproc
 2092              	.LFE341:
 2094              		.section	.text.USB_StopDevice,"ax",%progbits
 2095              		.align	1
 2096              		.global	USB_StopDevice
 2097              		.syntax unified
 2098              		.thumb
 2099              		.thumb_func
 2100              		.fpu fpv4-sp-d16
 2102              	USB_StopDevice:
 2103              	.LVL225:
 2104              	.LFB342:
 723:Drivers/STM32G4xx_HAL_Driver/Src/stm32g4xx_ll_usb.c **** #endif /* defined (HAL_PCD_MODULE_ENABLED) */
 724:Drivers/STM32G4xx_HAL_Driver/Src/stm32g4xx_ll_usb.c **** 
 725:Drivers/STM32G4xx_HAL_Driver/Src/stm32g4xx_ll_usb.c **** /**
 726:Drivers/STM32G4xx_HAL_Driver/Src/stm32g4xx_ll_usb.c ****   * @brief  USB_StopDevice Stop the usb device mode
 727:Drivers/STM32G4xx_HAL_Driver/Src/stm32g4xx_ll_usb.c ****   * @param  USBx Selected device
 728:Drivers/STM32G4xx_HAL_Driver/Src/stm32g4xx_ll_usb.c ****   * @retval HAL status
 729:Drivers/STM32G4xx_HAL_Driver/Src/stm32g4xx_ll_usb.c ****   */
 730:Drivers/STM32G4xx_HAL_Driver/Src/stm32g4xx_ll_usb.c **** HAL_StatusTypeDef USB_StopDevice(USB_TypeDef *USBx)
 731:Drivers/STM32G4xx_HAL_Driver/Src/stm32g4xx_ll_usb.c **** {
 2105              		.loc 1 731 1 is_stmt 1 view -0
 2106              		.cfi_startproc
 2107              		@ args = 0, pretend = 0, frame = 0
 2108              		@ frame_needed = 0, uses_anonymous_args = 0
 2109              		@ link register save eliminated.
 2110              		.loc 1 731 1 is_stmt 0 view .LVU719
 2111 0000 0346     		mov	r3, r0
 732:Drivers/STM32G4xx_HAL_Driver/Src/stm32g4xx_ll_usb.c ****   /* disable all interrupts and force USB reset */
 733:Drivers/STM32G4xx_HAL_Driver/Src/stm32g4xx_ll_usb.c ****   USBx->CNTR = (uint16_t)USB_CNTR_FRES;
 2112              		.loc 1 733 3 is_stmt 1 view .LVU720
 2113              		.loc 1 733 14 is_stmt 0 view .LVU721
 2114 0002 0122     		movs	r2, #1
 2115 0004 A0F84020 		strh	r2, [r0, #64]	@ movhi
 734:Drivers/STM32G4xx_HAL_Driver/Src/stm32g4xx_ll_usb.c **** 
 735:Drivers/STM32G4xx_HAL_Driver/Src/stm32g4xx_ll_usb.c ****   /* clear interrupt status register */
 736:Drivers/STM32G4xx_HAL_Driver/Src/stm32g4xx_ll_usb.c ****   USBx->ISTR = 0U;
 2116              		.loc 1 736 3 is_stmt 1 view .LVU722
ARM GAS  /tmp/cc98KGWN.s 			page 55


 2117              		.loc 1 736 14 is_stmt 0 view .LVU723
 2118 0008 0020     		movs	r0, #0
 2119              	.LVL226:
 2120              		.loc 1 736 14 view .LVU724
 2121 000a A3F84400 		strh	r0, [r3, #68]	@ movhi
 737:Drivers/STM32G4xx_HAL_Driver/Src/stm32g4xx_ll_usb.c **** 
 738:Drivers/STM32G4xx_HAL_Driver/Src/stm32g4xx_ll_usb.c ****   /* switch-off device */
 739:Drivers/STM32G4xx_HAL_Driver/Src/stm32g4xx_ll_usb.c ****   USBx->CNTR = (uint16_t)(USB_CNTR_FRES | USB_CNTR_PDWN);
 2122              		.loc 1 739 3 is_stmt 1 view .LVU725
 2123              		.loc 1 739 14 is_stmt 0 view .LVU726
 2124 000e 0322     		movs	r2, #3
 2125 0010 A3F84020 		strh	r2, [r3, #64]	@ movhi
 740:Drivers/STM32G4xx_HAL_Driver/Src/stm32g4xx_ll_usb.c **** 
 741:Drivers/STM32G4xx_HAL_Driver/Src/stm32g4xx_ll_usb.c ****   return HAL_OK;
 2126              		.loc 1 741 3 is_stmt 1 view .LVU727
 742:Drivers/STM32G4xx_HAL_Driver/Src/stm32g4xx_ll_usb.c **** }
 2127              		.loc 1 742 1 is_stmt 0 view .LVU728
 2128 0014 7047     		bx	lr
 2129              		.cfi_endproc
 2130              	.LFE342:
 2132              		.section	.text.USB_SetDevAddress,"ax",%progbits
 2133              		.align	1
 2134              		.global	USB_SetDevAddress
 2135              		.syntax unified
 2136              		.thumb
 2137              		.thumb_func
 2138              		.fpu fpv4-sp-d16
 2140              	USB_SetDevAddress:
 2141              	.LVL227:
 2142              	.LFB343:
 743:Drivers/STM32G4xx_HAL_Driver/Src/stm32g4xx_ll_usb.c **** 
 744:Drivers/STM32G4xx_HAL_Driver/Src/stm32g4xx_ll_usb.c **** /**
 745:Drivers/STM32G4xx_HAL_Driver/Src/stm32g4xx_ll_usb.c ****   * @brief  USB_SetDevAddress Stop the usb device mode
 746:Drivers/STM32G4xx_HAL_Driver/Src/stm32g4xx_ll_usb.c ****   * @param  USBx Selected device
 747:Drivers/STM32G4xx_HAL_Driver/Src/stm32g4xx_ll_usb.c ****   * @param  address new device address to be assigned
 748:Drivers/STM32G4xx_HAL_Driver/Src/stm32g4xx_ll_usb.c ****   *          This parameter can be a value from 0 to 255
 749:Drivers/STM32G4xx_HAL_Driver/Src/stm32g4xx_ll_usb.c ****   * @retval HAL status
 750:Drivers/STM32G4xx_HAL_Driver/Src/stm32g4xx_ll_usb.c ****   */
 751:Drivers/STM32G4xx_HAL_Driver/Src/stm32g4xx_ll_usb.c **** HAL_StatusTypeDef  USB_SetDevAddress(USB_TypeDef *USBx, uint8_t address)
 752:Drivers/STM32G4xx_HAL_Driver/Src/stm32g4xx_ll_usb.c **** {
 2143              		.loc 1 752 1 is_stmt 1 view -0
 2144              		.cfi_startproc
 2145              		@ args = 0, pretend = 0, frame = 0
 2146              		@ frame_needed = 0, uses_anonymous_args = 0
 2147              		@ link register save eliminated.
 753:Drivers/STM32G4xx_HAL_Driver/Src/stm32g4xx_ll_usb.c ****   if (address == 0U)
 2148              		.loc 1 753 3 view .LVU730
 2149              		.loc 1 753 6 is_stmt 0 view .LVU731
 2150 0000 11B9     		cbnz	r1, .L82
 754:Drivers/STM32G4xx_HAL_Driver/Src/stm32g4xx_ll_usb.c ****   {
 755:Drivers/STM32G4xx_HAL_Driver/Src/stm32g4xx_ll_usb.c ****     /* set device address and enable function */
 756:Drivers/STM32G4xx_HAL_Driver/Src/stm32g4xx_ll_usb.c ****     USBx->DADDR = (uint16_t)USB_DADDR_EF;
 2151              		.loc 1 756 5 is_stmt 1 view .LVU732
 2152              		.loc 1 756 17 is_stmt 0 view .LVU733
 2153 0002 8023     		movs	r3, #128
 2154 0004 A0F84C30 		strh	r3, [r0, #76]	@ movhi
 2155              	.L82:
ARM GAS  /tmp/cc98KGWN.s 			page 56


 757:Drivers/STM32G4xx_HAL_Driver/Src/stm32g4xx_ll_usb.c ****   }
 758:Drivers/STM32G4xx_HAL_Driver/Src/stm32g4xx_ll_usb.c **** 
 759:Drivers/STM32G4xx_HAL_Driver/Src/stm32g4xx_ll_usb.c ****   return HAL_OK;
 2156              		.loc 1 759 3 is_stmt 1 view .LVU734
 760:Drivers/STM32G4xx_HAL_Driver/Src/stm32g4xx_ll_usb.c **** }
 2157              		.loc 1 760 1 is_stmt 0 view .LVU735
 2158 0008 0020     		movs	r0, #0
 2159              	.LVL228:
 2160              		.loc 1 760 1 view .LVU736
 2161 000a 7047     		bx	lr
 2162              		.cfi_endproc
 2163              	.LFE343:
 2165              		.section	.text.USB_DevConnect,"ax",%progbits
 2166              		.align	1
 2167              		.global	USB_DevConnect
 2168              		.syntax unified
 2169              		.thumb
 2170              		.thumb_func
 2171              		.fpu fpv4-sp-d16
 2173              	USB_DevConnect:
 2174              	.LVL229:
 2175              	.LFB344:
 761:Drivers/STM32G4xx_HAL_Driver/Src/stm32g4xx_ll_usb.c **** 
 762:Drivers/STM32G4xx_HAL_Driver/Src/stm32g4xx_ll_usb.c **** /**
 763:Drivers/STM32G4xx_HAL_Driver/Src/stm32g4xx_ll_usb.c ****   * @brief  USB_DevConnect Connect the USB device by enabling the pull-up/pull-down
 764:Drivers/STM32G4xx_HAL_Driver/Src/stm32g4xx_ll_usb.c ****   * @param  USBx Selected device
 765:Drivers/STM32G4xx_HAL_Driver/Src/stm32g4xx_ll_usb.c ****   * @retval HAL status
 766:Drivers/STM32G4xx_HAL_Driver/Src/stm32g4xx_ll_usb.c ****   */
 767:Drivers/STM32G4xx_HAL_Driver/Src/stm32g4xx_ll_usb.c **** HAL_StatusTypeDef  USB_DevConnect(USB_TypeDef *USBx)
 768:Drivers/STM32G4xx_HAL_Driver/Src/stm32g4xx_ll_usb.c **** {
 2176              		.loc 1 768 1 is_stmt 1 view -0
 2177              		.cfi_startproc
 2178              		@ args = 0, pretend = 0, frame = 0
 2179              		@ frame_needed = 0, uses_anonymous_args = 0
 2180              		@ link register save eliminated.
 769:Drivers/STM32G4xx_HAL_Driver/Src/stm32g4xx_ll_usb.c ****   /* Enabling DP Pull-UP bit to Connect internal PU resistor on USB DP line */
 770:Drivers/STM32G4xx_HAL_Driver/Src/stm32g4xx_ll_usb.c ****   USBx->BCDR |= (uint16_t)USB_BCDR_DPPU;
 2181              		.loc 1 770 3 view .LVU738
 2182              		.loc 1 770 14 is_stmt 0 view .LVU739
 2183 0000 B0F85830 		ldrh	r3, [r0, #88]
 2184 0004 6FEA4343 		mvn	r3, r3, lsl #17
 2185 0008 6FEA5343 		mvn	r3, r3, lsr #17
 2186 000c 9BB2     		uxth	r3, r3
 2187 000e A0F85830 		strh	r3, [r0, #88]	@ movhi
 771:Drivers/STM32G4xx_HAL_Driver/Src/stm32g4xx_ll_usb.c **** 
 772:Drivers/STM32G4xx_HAL_Driver/Src/stm32g4xx_ll_usb.c ****   return HAL_OK;
 2188              		.loc 1 772 3 is_stmt 1 view .LVU740
 773:Drivers/STM32G4xx_HAL_Driver/Src/stm32g4xx_ll_usb.c **** }
 2189              		.loc 1 773 1 is_stmt 0 view .LVU741
 2190 0012 0020     		movs	r0, #0
 2191              	.LVL230:
 2192              		.loc 1 773 1 view .LVU742
 2193 0014 7047     		bx	lr
 2194              		.cfi_endproc
 2195              	.LFE344:
 2197              		.section	.text.USB_DevDisconnect,"ax",%progbits
 2198              		.align	1
ARM GAS  /tmp/cc98KGWN.s 			page 57


 2199              		.global	USB_DevDisconnect
 2200              		.syntax unified
 2201              		.thumb
 2202              		.thumb_func
 2203              		.fpu fpv4-sp-d16
 2205              	USB_DevDisconnect:
 2206              	.LVL231:
 2207              	.LFB345:
 774:Drivers/STM32G4xx_HAL_Driver/Src/stm32g4xx_ll_usb.c **** 
 775:Drivers/STM32G4xx_HAL_Driver/Src/stm32g4xx_ll_usb.c **** /**
 776:Drivers/STM32G4xx_HAL_Driver/Src/stm32g4xx_ll_usb.c ****   * @brief  USB_DevDisconnect Disconnect the USB device by disabling the pull-up/pull-down
 777:Drivers/STM32G4xx_HAL_Driver/Src/stm32g4xx_ll_usb.c ****   * @param  USBx Selected device
 778:Drivers/STM32G4xx_HAL_Driver/Src/stm32g4xx_ll_usb.c ****   * @retval HAL status
 779:Drivers/STM32G4xx_HAL_Driver/Src/stm32g4xx_ll_usb.c ****   */
 780:Drivers/STM32G4xx_HAL_Driver/Src/stm32g4xx_ll_usb.c **** HAL_StatusTypeDef  USB_DevDisconnect(USB_TypeDef *USBx)
 781:Drivers/STM32G4xx_HAL_Driver/Src/stm32g4xx_ll_usb.c **** {
 2208              		.loc 1 781 1 is_stmt 1 view -0
 2209              		.cfi_startproc
 2210              		@ args = 0, pretend = 0, frame = 0
 2211              		@ frame_needed = 0, uses_anonymous_args = 0
 2212              		@ link register save eliminated.
 782:Drivers/STM32G4xx_HAL_Driver/Src/stm32g4xx_ll_usb.c ****   /* Disable DP Pull-Up bit to disconnect the Internal PU resistor on USB DP line */
 783:Drivers/STM32G4xx_HAL_Driver/Src/stm32g4xx_ll_usb.c ****   USBx->BCDR &= (uint16_t)(~(USB_BCDR_DPPU));
 2213              		.loc 1 783 3 view .LVU744
 2214              		.loc 1 783 14 is_stmt 0 view .LVU745
 2215 0000 B0F85830 		ldrh	r3, [r0, #88]
 2216 0004 C3F30E03 		ubfx	r3, r3, #0, #15
 2217 0008 A0F85830 		strh	r3, [r0, #88]	@ movhi
 784:Drivers/STM32G4xx_HAL_Driver/Src/stm32g4xx_ll_usb.c **** 
 785:Drivers/STM32G4xx_HAL_Driver/Src/stm32g4xx_ll_usb.c ****   return HAL_OK;
 2218              		.loc 1 785 3 is_stmt 1 view .LVU746
 786:Drivers/STM32G4xx_HAL_Driver/Src/stm32g4xx_ll_usb.c **** }
 2219              		.loc 1 786 1 is_stmt 0 view .LVU747
 2220 000c 0020     		movs	r0, #0
 2221              	.LVL232:
 2222              		.loc 1 786 1 view .LVU748
 2223 000e 7047     		bx	lr
 2224              		.cfi_endproc
 2225              	.LFE345:
 2227              		.section	.text.USB_ReadInterrupts,"ax",%progbits
 2228              		.align	1
 2229              		.global	USB_ReadInterrupts
 2230              		.syntax unified
 2231              		.thumb
 2232              		.thumb_func
 2233              		.fpu fpv4-sp-d16
 2235              	USB_ReadInterrupts:
 2236              	.LVL233:
 2237              	.LFB346:
 787:Drivers/STM32G4xx_HAL_Driver/Src/stm32g4xx_ll_usb.c **** 
 788:Drivers/STM32G4xx_HAL_Driver/Src/stm32g4xx_ll_usb.c **** /**
 789:Drivers/STM32G4xx_HAL_Driver/Src/stm32g4xx_ll_usb.c ****   * @brief  USB_ReadInterrupts return the global USB interrupt status
 790:Drivers/STM32G4xx_HAL_Driver/Src/stm32g4xx_ll_usb.c ****   * @param  USBx Selected device
 791:Drivers/STM32G4xx_HAL_Driver/Src/stm32g4xx_ll_usb.c ****   * @retval USB Global Interrupt status
 792:Drivers/STM32G4xx_HAL_Driver/Src/stm32g4xx_ll_usb.c ****   */
 793:Drivers/STM32G4xx_HAL_Driver/Src/stm32g4xx_ll_usb.c **** uint32_t USB_ReadInterrupts(USB_TypeDef const *USBx)
 794:Drivers/STM32G4xx_HAL_Driver/Src/stm32g4xx_ll_usb.c **** {
ARM GAS  /tmp/cc98KGWN.s 			page 58


 2238              		.loc 1 794 1 is_stmt 1 view -0
 2239              		.cfi_startproc
 2240              		@ args = 0, pretend = 0, frame = 0
 2241              		@ frame_needed = 0, uses_anonymous_args = 0
 2242              		@ link register save eliminated.
 795:Drivers/STM32G4xx_HAL_Driver/Src/stm32g4xx_ll_usb.c ****   uint32_t tmpreg;
 2243              		.loc 1 795 3 view .LVU750
 796:Drivers/STM32G4xx_HAL_Driver/Src/stm32g4xx_ll_usb.c **** 
 797:Drivers/STM32G4xx_HAL_Driver/Src/stm32g4xx_ll_usb.c ****   tmpreg = USBx->ISTR;
 2244              		.loc 1 797 3 view .LVU751
 2245              		.loc 1 797 16 is_stmt 0 view .LVU752
 2246 0000 B0F84400 		ldrh	r0, [r0, #68]
 2247              	.LVL234:
 798:Drivers/STM32G4xx_HAL_Driver/Src/stm32g4xx_ll_usb.c ****   return tmpreg;
 2248              		.loc 1 798 3 is_stmt 1 view .LVU753
 799:Drivers/STM32G4xx_HAL_Driver/Src/stm32g4xx_ll_usb.c **** }
 2249              		.loc 1 799 1 is_stmt 0 view .LVU754
 2250 0004 80B2     		uxth	r0, r0
 2251              	.LVL235:
 2252              		.loc 1 799 1 view .LVU755
 2253 0006 7047     		bx	lr
 2254              		.cfi_endproc
 2255              	.LFE346:
 2257              		.section	.text.USB_ActivateRemoteWakeup,"ax",%progbits
 2258              		.align	1
 2259              		.global	USB_ActivateRemoteWakeup
 2260              		.syntax unified
 2261              		.thumb
 2262              		.thumb_func
 2263              		.fpu fpv4-sp-d16
 2265              	USB_ActivateRemoteWakeup:
 2266              	.LVL236:
 2267              	.LFB347:
 800:Drivers/STM32G4xx_HAL_Driver/Src/stm32g4xx_ll_usb.c **** 
 801:Drivers/STM32G4xx_HAL_Driver/Src/stm32g4xx_ll_usb.c **** /**
 802:Drivers/STM32G4xx_HAL_Driver/Src/stm32g4xx_ll_usb.c ****   * @brief  USB_ActivateRemoteWakeup : active remote wakeup signalling
 803:Drivers/STM32G4xx_HAL_Driver/Src/stm32g4xx_ll_usb.c ****   * @param  USBx Selected device
 804:Drivers/STM32G4xx_HAL_Driver/Src/stm32g4xx_ll_usb.c ****   * @retval HAL status
 805:Drivers/STM32G4xx_HAL_Driver/Src/stm32g4xx_ll_usb.c ****   */
 806:Drivers/STM32G4xx_HAL_Driver/Src/stm32g4xx_ll_usb.c **** HAL_StatusTypeDef USB_ActivateRemoteWakeup(USB_TypeDef *USBx)
 807:Drivers/STM32G4xx_HAL_Driver/Src/stm32g4xx_ll_usb.c **** {
 2268              		.loc 1 807 1 is_stmt 1 view -0
 2269              		.cfi_startproc
 2270              		@ args = 0, pretend = 0, frame = 0
 2271              		@ frame_needed = 0, uses_anonymous_args = 0
 2272              		@ link register save eliminated.
 808:Drivers/STM32G4xx_HAL_Driver/Src/stm32g4xx_ll_usb.c ****   USBx->CNTR |= (uint16_t)USB_CNTR_RESUME;
 2273              		.loc 1 808 3 view .LVU757
 2274              		.loc 1 808 14 is_stmt 0 view .LVU758
 2275 0000 B0F84030 		ldrh	r3, [r0, #64]
 2276 0004 9BB2     		uxth	r3, r3
 2277 0006 43F01003 		orr	r3, r3, #16
 2278 000a A0F84030 		strh	r3, [r0, #64]	@ movhi
 809:Drivers/STM32G4xx_HAL_Driver/Src/stm32g4xx_ll_usb.c **** 
 810:Drivers/STM32G4xx_HAL_Driver/Src/stm32g4xx_ll_usb.c ****   return HAL_OK;
 2279              		.loc 1 810 3 is_stmt 1 view .LVU759
 811:Drivers/STM32G4xx_HAL_Driver/Src/stm32g4xx_ll_usb.c **** }
ARM GAS  /tmp/cc98KGWN.s 			page 59


 2280              		.loc 1 811 1 is_stmt 0 view .LVU760
 2281 000e 0020     		movs	r0, #0
 2282              	.LVL237:
 2283              		.loc 1 811 1 view .LVU761
 2284 0010 7047     		bx	lr
 2285              		.cfi_endproc
 2286              	.LFE347:
 2288              		.section	.text.USB_DeActivateRemoteWakeup,"ax",%progbits
 2289              		.align	1
 2290              		.global	USB_DeActivateRemoteWakeup
 2291              		.syntax unified
 2292              		.thumb
 2293              		.thumb_func
 2294              		.fpu fpv4-sp-d16
 2296              	USB_DeActivateRemoteWakeup:
 2297              	.LVL238:
 2298              	.LFB348:
 812:Drivers/STM32G4xx_HAL_Driver/Src/stm32g4xx_ll_usb.c **** 
 813:Drivers/STM32G4xx_HAL_Driver/Src/stm32g4xx_ll_usb.c **** /**
 814:Drivers/STM32G4xx_HAL_Driver/Src/stm32g4xx_ll_usb.c ****   * @brief  USB_DeActivateRemoteWakeup de-active remote wakeup signalling
 815:Drivers/STM32G4xx_HAL_Driver/Src/stm32g4xx_ll_usb.c ****   * @param  USBx Selected device
 816:Drivers/STM32G4xx_HAL_Driver/Src/stm32g4xx_ll_usb.c ****   * @retval HAL status
 817:Drivers/STM32G4xx_HAL_Driver/Src/stm32g4xx_ll_usb.c ****   */
 818:Drivers/STM32G4xx_HAL_Driver/Src/stm32g4xx_ll_usb.c **** HAL_StatusTypeDef USB_DeActivateRemoteWakeup(USB_TypeDef *USBx)
 819:Drivers/STM32G4xx_HAL_Driver/Src/stm32g4xx_ll_usb.c **** {
 2299              		.loc 1 819 1 is_stmt 1 view -0
 2300              		.cfi_startproc
 2301              		@ args = 0, pretend = 0, frame = 0
 2302              		@ frame_needed = 0, uses_anonymous_args = 0
 2303              		@ link register save eliminated.
 820:Drivers/STM32G4xx_HAL_Driver/Src/stm32g4xx_ll_usb.c ****   USBx->CNTR &= (uint16_t)(~USB_CNTR_RESUME);
 2304              		.loc 1 820 3 view .LVU763
 2305              		.loc 1 820 14 is_stmt 0 view .LVU764
 2306 0000 B0F84030 		ldrh	r3, [r0, #64]
 2307 0004 9BB2     		uxth	r3, r3
 2308 0006 23F01003 		bic	r3, r3, #16
 2309 000a 9BB2     		uxth	r3, r3
 2310 000c A0F84030 		strh	r3, [r0, #64]	@ movhi
 821:Drivers/STM32G4xx_HAL_Driver/Src/stm32g4xx_ll_usb.c **** 
 822:Drivers/STM32G4xx_HAL_Driver/Src/stm32g4xx_ll_usb.c ****   return HAL_OK;
 2311              		.loc 1 822 3 is_stmt 1 view .LVU765
 823:Drivers/STM32G4xx_HAL_Driver/Src/stm32g4xx_ll_usb.c **** }
 2312              		.loc 1 823 1 is_stmt 0 view .LVU766
 2313 0010 0020     		movs	r0, #0
 2314              	.LVL239:
 2315              		.loc 1 823 1 view .LVU767
 2316 0012 7047     		bx	lr
 2317              		.cfi_endproc
 2318              	.LFE348:
 2320              		.section	.text.USB_WritePMA,"ax",%progbits
 2321              		.align	1
 2322              		.global	USB_WritePMA
 2323              		.syntax unified
 2324              		.thumb
 2325              		.thumb_func
 2326              		.fpu fpv4-sp-d16
 2328              	USB_WritePMA:
ARM GAS  /tmp/cc98KGWN.s 			page 60


 2329              	.LVL240:
 2330              	.LFB349:
 824:Drivers/STM32G4xx_HAL_Driver/Src/stm32g4xx_ll_usb.c **** 
 825:Drivers/STM32G4xx_HAL_Driver/Src/stm32g4xx_ll_usb.c **** /**
 826:Drivers/STM32G4xx_HAL_Driver/Src/stm32g4xx_ll_usb.c ****   * @brief Copy a buffer from user memory area to packet memory area (PMA)
 827:Drivers/STM32G4xx_HAL_Driver/Src/stm32g4xx_ll_usb.c ****   * @param   USBx USB peripheral instance register address.
 828:Drivers/STM32G4xx_HAL_Driver/Src/stm32g4xx_ll_usb.c ****   * @param   pbUsrBuf pointer to user memory area.
 829:Drivers/STM32G4xx_HAL_Driver/Src/stm32g4xx_ll_usb.c ****   * @param   wPMABufAddr address into PMA.
 830:Drivers/STM32G4xx_HAL_Driver/Src/stm32g4xx_ll_usb.c ****   * @param   wNBytes no. of bytes to be copied.
 831:Drivers/STM32G4xx_HAL_Driver/Src/stm32g4xx_ll_usb.c ****   * @retval None
 832:Drivers/STM32G4xx_HAL_Driver/Src/stm32g4xx_ll_usb.c ****   */
 833:Drivers/STM32G4xx_HAL_Driver/Src/stm32g4xx_ll_usb.c **** void USB_WritePMA(USB_TypeDef const *USBx, uint8_t *pbUsrBuf, uint16_t wPMABufAddr, uint16_t wNByte
 834:Drivers/STM32G4xx_HAL_Driver/Src/stm32g4xx_ll_usb.c **** {
 2331              		.loc 1 834 1 is_stmt 1 view -0
 2332              		.cfi_startproc
 2333              		@ args = 0, pretend = 0, frame = 0
 2334              		@ frame_needed = 0, uses_anonymous_args = 0
 2335              		@ link register save eliminated.
 2336              		.loc 1 834 1 is_stmt 0 view .LVU769
 2337 0000 10B4     		push	{r4}
 2338              	.LCFI5:
 2339              		.cfi_def_cfa_offset 4
 2340              		.cfi_offset 4, -4
 835:Drivers/STM32G4xx_HAL_Driver/Src/stm32g4xx_ll_usb.c ****   uint32_t n = ((uint32_t)wNBytes + 1U) >> 1;
 2341              		.loc 1 835 3 is_stmt 1 view .LVU770
 2342              		.loc 1 835 35 is_stmt 0 view .LVU771
 2343 0002 5C1C     		adds	r4, r3, #1
 2344              		.loc 1 835 12 view .LVU772
 2345 0004 6408     		lsrs	r4, r4, #1
 2346              	.LVL241:
 836:Drivers/STM32G4xx_HAL_Driver/Src/stm32g4xx_ll_usb.c ****   uint32_t BaseAddr = (uint32_t)USBx;
 2347              		.loc 1 836 3 is_stmt 1 view .LVU773
 837:Drivers/STM32G4xx_HAL_Driver/Src/stm32g4xx_ll_usb.c ****   uint32_t count;
 2348              		.loc 1 837 3 view .LVU774
 838:Drivers/STM32G4xx_HAL_Driver/Src/stm32g4xx_ll_usb.c ****   uint16_t WrVal;
 2349              		.loc 1 838 3 view .LVU775
 839:Drivers/STM32G4xx_HAL_Driver/Src/stm32g4xx_ll_usb.c ****   __IO uint16_t *pdwVal;
 2350              		.loc 1 839 3 view .LVU776
 840:Drivers/STM32G4xx_HAL_Driver/Src/stm32g4xx_ll_usb.c ****   uint8_t *pBuf = pbUsrBuf;
 2351              		.loc 1 840 3 view .LVU777
 841:Drivers/STM32G4xx_HAL_Driver/Src/stm32g4xx_ll_usb.c **** 
 842:Drivers/STM32G4xx_HAL_Driver/Src/stm32g4xx_ll_usb.c ****   pdwVal = (__IO uint16_t *)(BaseAddr + 0x400U + ((uint32_t)wPMABufAddr * PMA_ACCESS));
 2352              		.loc 1 842 3 view .LVU778
 2353              		.loc 1 842 48 is_stmt 0 view .LVU779
 2354 0006 0244     		add	r2, r2, r0
 2355              	.LVL242:
 2356              		.loc 1 842 48 view .LVU780
 2357 0008 02F58062 		add	r2, r2, #1024
 2358              	.LVL243:
 843:Drivers/STM32G4xx_HAL_Driver/Src/stm32g4xx_ll_usb.c **** 
 844:Drivers/STM32G4xx_HAL_Driver/Src/stm32g4xx_ll_usb.c ****   for (count = n; count != 0U; count--)
 2359              		.loc 1 844 3 is_stmt 1 view .LVU781
 2360              		.loc 1 844 3 is_stmt 0 view .LVU782
 2361 000c 07E0     		b	.L89
 2362              	.LVL244:
 2363              	.L90:
 845:Drivers/STM32G4xx_HAL_Driver/Src/stm32g4xx_ll_usb.c ****   {
ARM GAS  /tmp/cc98KGWN.s 			page 61


 846:Drivers/STM32G4xx_HAL_Driver/Src/stm32g4xx_ll_usb.c ****     WrVal = pBuf[0];
 2364              		.loc 1 846 5 is_stmt 1 discriminator 3 view .LVU783
 2365              		.loc 1 846 17 is_stmt 0 discriminator 3 view .LVU784
 2366 000e 0B78     		ldrb	r3, [r1]	@ zero_extendqisi2
 2367              	.LVL245:
 847:Drivers/STM32G4xx_HAL_Driver/Src/stm32g4xx_ll_usb.c ****     WrVal |= (uint16_t)pBuf[1] << 8;
 2368              		.loc 1 847 5 is_stmt 1 discriminator 3 view .LVU785
 2369              		.loc 1 847 28 is_stmt 0 discriminator 3 view .LVU786
 2370 0010 4878     		ldrb	r0, [r1, #1]	@ zero_extendqisi2
 2371              		.loc 1 847 11 discriminator 3 view .LVU787
 2372 0012 43EA0023 		orr	r3, r3, r0, lsl #8
 2373              	.LVL246:
 848:Drivers/STM32G4xx_HAL_Driver/Src/stm32g4xx_ll_usb.c ****     *pdwVal = (WrVal & 0xFFFFU);
 2374              		.loc 1 848 5 is_stmt 1 discriminator 3 view .LVU788
 2375              		.loc 1 848 13 is_stmt 0 discriminator 3 view .LVU789
 2376 0016 22F8023B 		strh	r3, [r2], #2	@ movhi
 2377              	.LVL247:
 849:Drivers/STM32G4xx_HAL_Driver/Src/stm32g4xx_ll_usb.c ****     pdwVal++;
 2378              		.loc 1 849 5 is_stmt 1 discriminator 3 view .LVU790
 850:Drivers/STM32G4xx_HAL_Driver/Src/stm32g4xx_ll_usb.c **** 
 851:Drivers/STM32G4xx_HAL_Driver/Src/stm32g4xx_ll_usb.c **** #if PMA_ACCESS > 1U
 852:Drivers/STM32G4xx_HAL_Driver/Src/stm32g4xx_ll_usb.c ****     pdwVal++;
 853:Drivers/STM32G4xx_HAL_Driver/Src/stm32g4xx_ll_usb.c **** #endif /* PMA_ACCESS */
 854:Drivers/STM32G4xx_HAL_Driver/Src/stm32g4xx_ll_usb.c **** 
 855:Drivers/STM32G4xx_HAL_Driver/Src/stm32g4xx_ll_usb.c ****     pBuf++;
 2379              		.loc 1 855 5 discriminator 3 view .LVU791
 856:Drivers/STM32G4xx_HAL_Driver/Src/stm32g4xx_ll_usb.c ****     pBuf++;
 2380              		.loc 1 856 5 discriminator 3 view .LVU792
 2381              		.loc 1 856 9 is_stmt 0 discriminator 3 view .LVU793
 2382 001a 0231     		adds	r1, r1, #2
 2383              	.LVL248:
 844:Drivers/STM32G4xx_HAL_Driver/Src/stm32g4xx_ll_usb.c ****   {
 2384              		.loc 1 844 32 is_stmt 1 discriminator 3 view .LVU794
 844:Drivers/STM32G4xx_HAL_Driver/Src/stm32g4xx_ll_usb.c ****   {
 2385              		.loc 1 844 37 is_stmt 0 discriminator 3 view .LVU795
 2386 001c 013C     		subs	r4, r4, #1
 2387              	.LVL249:
 2388              	.L89:
 844:Drivers/STM32G4xx_HAL_Driver/Src/stm32g4xx_ll_usb.c ****   {
 2389              		.loc 1 844 19 is_stmt 1 discriminator 1 view .LVU796
 844:Drivers/STM32G4xx_HAL_Driver/Src/stm32g4xx_ll_usb.c ****   {
 2390              		.loc 1 844 3 is_stmt 0 discriminator 1 view .LVU797
 2391 001e 002C     		cmp	r4, #0
 2392 0020 F5D1     		bne	.L90
 857:Drivers/STM32G4xx_HAL_Driver/Src/stm32g4xx_ll_usb.c ****   }
 858:Drivers/STM32G4xx_HAL_Driver/Src/stm32g4xx_ll_usb.c **** }
 2393              		.loc 1 858 1 view .LVU798
 2394 0022 5DF8044B 		ldr	r4, [sp], #4
 2395              	.LCFI6:
 2396              		.cfi_restore 4
 2397              		.cfi_def_cfa_offset 0
 2398              	.LVL250:
 2399              		.loc 1 858 1 view .LVU799
 2400 0026 7047     		bx	lr
 2401              		.cfi_endproc
 2402              	.LFE349:
 2404              		.section	.text.USB_EPStartXfer,"ax",%progbits
ARM GAS  /tmp/cc98KGWN.s 			page 62


 2405              		.align	1
 2406              		.global	USB_EPStartXfer
 2407              		.syntax unified
 2408              		.thumb
 2409              		.thumb_func
 2410              		.fpu fpv4-sp-d16
 2412              	USB_EPStartXfer:
 2413              	.LVL251:
 2414              	.LFB338:
 423:Drivers/STM32G4xx_HAL_Driver/Src/stm32g4xx_ll_usb.c ****   uint32_t len;
 2415              		.loc 1 423 1 is_stmt 1 view -0
 2416              		.cfi_startproc
 2417              		@ args = 0, pretend = 0, frame = 0
 2418              		@ frame_needed = 0, uses_anonymous_args = 0
 423:Drivers/STM32G4xx_HAL_Driver/Src/stm32g4xx_ll_usb.c ****   uint32_t len;
 2419              		.loc 1 423 1 is_stmt 0 view .LVU801
 2420 0000 70B5     		push	{r4, r5, r6, lr}
 2421              	.LCFI7:
 2422              		.cfi_def_cfa_offset 16
 2423              		.cfi_offset 4, -16
 2424              		.cfi_offset 5, -12
 2425              		.cfi_offset 6, -8
 2426              		.cfi_offset 14, -4
 2427 0002 0546     		mov	r5, r0
 2428 0004 0C46     		mov	r4, r1
 424:Drivers/STM32G4xx_HAL_Driver/Src/stm32g4xx_ll_usb.c **** #if (USE_USB_DOUBLE_BUFFER == 1U)
 2429              		.loc 1 424 3 is_stmt 1 view .LVU802
 426:Drivers/STM32G4xx_HAL_Driver/Src/stm32g4xx_ll_usb.c ****   uint16_t wEPVal;
 2430              		.loc 1 426 3 view .LVU803
 427:Drivers/STM32G4xx_HAL_Driver/Src/stm32g4xx_ll_usb.c **** #endif /* (USE_USB_DOUBLE_BUFFER == 1U) */
 2431              		.loc 1 427 3 view .LVU804
 431:Drivers/STM32G4xx_HAL_Driver/Src/stm32g4xx_ll_usb.c ****   {
 2432              		.loc 1 431 3 view .LVU805
 431:Drivers/STM32G4xx_HAL_Driver/Src/stm32g4xx_ll_usb.c ****   {
 2433              		.loc 1 431 9 is_stmt 0 view .LVU806
 2434 0006 4B78     		ldrb	r3, [r1, #1]	@ zero_extendqisi2
 431:Drivers/STM32G4xx_HAL_Driver/Src/stm32g4xx_ll_usb.c ****   {
 2435              		.loc 1 431 6 view .LVU807
 2436 0008 012B     		cmp	r3, #1
 2437 000a 1AD0     		beq	.L151
 567:Drivers/STM32G4xx_HAL_Driver/Src/stm32g4xx_ll_usb.c ****     {
 2438              		.loc 1 567 5 is_stmt 1 view .LVU808
 567:Drivers/STM32G4xx_HAL_Driver/Src/stm32g4xx_ll_usb.c ****     {
 2439              		.loc 1 567 11 is_stmt 0 view .LVU809
 2440 000c 0B7B     		ldrb	r3, [r1, #12]	@ zero_extendqisi2
 567:Drivers/STM32G4xx_HAL_Driver/Src/stm32g4xx_ll_usb.c ****     {
 2441              		.loc 1 567 8 view .LVU810
 2442 000e 002B     		cmp	r3, #0
 2443 0010 40F09282 		bne	.L142
 569:Drivers/STM32G4xx_HAL_Driver/Src/stm32g4xx_ll_usb.c ****       {
 2444              		.loc 1 569 7 is_stmt 1 view .LVU811
 569:Drivers/STM32G4xx_HAL_Driver/Src/stm32g4xx_ll_usb.c ****       {
 2445              		.loc 1 569 14 is_stmt 0 view .LVU812
 2446 0014 8B69     		ldr	r3, [r1, #24]
 569:Drivers/STM32G4xx_HAL_Driver/Src/stm32g4xx_ll_usb.c ****       {
 2447              		.loc 1 569 10 view .LVU813
 2448 0016 002B     		cmp	r3, #0
ARM GAS  /tmp/cc98KGWN.s 			page 63


 2449 0018 40F06582 		bne	.L143
 569:Drivers/STM32G4xx_HAL_Driver/Src/stm32g4xx_ll_usb.c ****       {
 2450              		.loc 1 569 38 discriminator 1 view .LVU814
 2451 001c CB78     		ldrb	r3, [r1, #3]	@ zero_extendqisi2
 569:Drivers/STM32G4xx_HAL_Driver/Src/stm32g4xx_ll_usb.c ****       {
 2452              		.loc 1 569 32 discriminator 1 view .LVU815
 2453 001e 002B     		cmp	r3, #0
 2454 0020 40F06182 		bne	.L143
 572:Drivers/STM32G4xx_HAL_Driver/Src/stm32g4xx_ll_usb.c ****       }
 2455              		.loc 1 572 9 is_stmt 1 view .LVU816
 2456              	.LBB78:
 572:Drivers/STM32G4xx_HAL_Driver/Src/stm32g4xx_ll_usb.c ****       }
 2457              		.loc 1 572 9 view .LVU817
 572:Drivers/STM32G4xx_HAL_Driver/Src/stm32g4xx_ll_usb.c ****       }
 2458              		.loc 1 572 9 view .LVU818
 2459 0024 0A78     		ldrb	r2, [r1]	@ zero_extendqisi2
 2460 0026 30F82230 		ldrh	r3, [r0, r2, lsl #2]
 2461 002a 9BB2     		uxth	r3, r3
 2462 002c 23F4E043 		bic	r3, r3, #28672
 2463 0030 23F07003 		bic	r3, r3, #112
 2464              	.LVL252:
 572:Drivers/STM32G4xx_HAL_Driver/Src/stm32g4xx_ll_usb.c ****       }
 2465              		.loc 1 572 9 view .LVU819
 2466 0034 43F40143 		orr	r3, r3, #33024
 2467              	.LVL253:
 572:Drivers/STM32G4xx_HAL_Driver/Src/stm32g4xx_ll_usb.c ****       }
 2468              		.loc 1 572 9 is_stmt 0 view .LVU820
 2469 0038 43F08003 		orr	r3, r3, #128
 2470 003c 20F82230 		strh	r3, [r0, r2, lsl #2]	@ movhi
 2471              	.LBE78:
 572:Drivers/STM32G4xx_HAL_Driver/Src/stm32g4xx_ll_usb.c ****       }
 2472              		.loc 1 572 9 is_stmt 1 view .LVU821
 2473 0040 5FE2     		b	.L144
 2474              	.L151:
 434:Drivers/STM32G4xx_HAL_Driver/Src/stm32g4xx_ll_usb.c ****     {
 2475              		.loc 1 434 5 view .LVU822
 434:Drivers/STM32G4xx_HAL_Driver/Src/stm32g4xx_ll_usb.c ****     {
 2476              		.loc 1 434 11 is_stmt 0 view .LVU823
 2477 0042 8E69     		ldr	r6, [r1, #24]
 434:Drivers/STM32G4xx_HAL_Driver/Src/stm32g4xx_ll_usb.c ****     {
 2478              		.loc 1 434 26 view .LVU824
 2479 0044 0A69     		ldr	r2, [r1, #16]
 434:Drivers/STM32G4xx_HAL_Driver/Src/stm32g4xx_ll_usb.c ****     {
 2480              		.loc 1 434 8 view .LVU825
 2481 0046 9642     		cmp	r6, r2
 2482 0048 00D9     		bls	.L94
 436:Drivers/STM32G4xx_HAL_Driver/Src/stm32g4xx_ll_usb.c ****     }
 2483              		.loc 1 436 11 view .LVU826
 2484 004a 1646     		mov	r6, r2
 2485              	.L94:
 2486              	.LVL254:
 444:Drivers/STM32G4xx_HAL_Driver/Src/stm32g4xx_ll_usb.c ****     {
 2487              		.loc 1 444 5 is_stmt 1 view .LVU827
 444:Drivers/STM32G4xx_HAL_Driver/Src/stm32g4xx_ll_usb.c ****     {
 2488              		.loc 1 444 11 is_stmt 0 view .LVU828
 2489 004c 217B     		ldrb	r1, [r4, #12]	@ zero_extendqisi2
 2490              	.LVL255:
ARM GAS  /tmp/cc98KGWN.s 			page 64


 444:Drivers/STM32G4xx_HAL_Driver/Src/stm32g4xx_ll_usb.c ****     {
 2491              		.loc 1 444 8 view .LVU829
 2492 004e 41B3     		cbz	r1, .L152
 453:Drivers/STM32G4xx_HAL_Driver/Src/stm32g4xx_ll_usb.c ****       {
 2493              		.loc 1 453 7 is_stmt 1 view .LVU830
 453:Drivers/STM32G4xx_HAL_Driver/Src/stm32g4xx_ll_usb.c ****       {
 2494              		.loc 1 453 13 is_stmt 0 view .LVU831
 2495 0050 E178     		ldrb	r1, [r4, #3]	@ zero_extendqisi2
 453:Drivers/STM32G4xx_HAL_Driver/Src/stm32g4xx_ll_usb.c ****       {
 2496              		.loc 1 453 10 view .LVU832
 2497 0052 0229     		cmp	r1, #2
 2498 0054 47D0     		beq	.L153
 538:Drivers/STM32G4xx_HAL_Driver/Src/stm32g4xx_ll_usb.c **** 
 2499              		.loc 1 538 9 is_stmt 1 view .LVU833
 538:Drivers/STM32G4xx_HAL_Driver/Src/stm32g4xx_ll_usb.c **** 
 2500              		.loc 1 538 25 is_stmt 0 view .LVU834
 2501 0056 226A     		ldr	r2, [r4, #32]
 2502 0058 921B     		subs	r2, r2, r6
 2503 005a 2262     		str	r2, [r4, #32]
 541:Drivers/STM32G4xx_HAL_Driver/Src/stm32g4xx_ll_usb.c ****         {
 2504              		.loc 1 541 9 is_stmt 1 view .LVU835
 541:Drivers/STM32G4xx_HAL_Driver/Src/stm32g4xx_ll_usb.c ****         {
 2505              		.loc 1 541 14 is_stmt 0 view .LVU836
 2506 005c 2278     		ldrb	r2, [r4]	@ zero_extendqisi2
 2507 005e 35F82210 		ldrh	r1, [r5, r2, lsl #2]
 541:Drivers/STM32G4xx_HAL_Driver/Src/stm32g4xx_ll_usb.c ****         {
 2508              		.loc 1 541 12 view .LVU837
 2509 0062 11F0400F 		tst	r1, #64
 2510 0066 00F0F681 		beq	.L128
 544:Drivers/STM32G4xx_HAL_Driver/Src/stm32g4xx_ll_usb.c ****           pmabuffer = ep->pmaaddr1;
 2511              		.loc 1 544 11 is_stmt 1 view .LVU838
 2512              	.LBB79:
 544:Drivers/STM32G4xx_HAL_Driver/Src/stm32g4xx_ll_usb.c ****           pmabuffer = ep->pmaaddr1;
 2513              		.loc 1 544 11 view .LVU839
 2514              	.LVL256:
 544:Drivers/STM32G4xx_HAL_Driver/Src/stm32g4xx_ll_usb.c ****           pmabuffer = ep->pmaaddr1;
 2515              		.loc 1 544 11 view .LVU840
 544:Drivers/STM32G4xx_HAL_Driver/Src/stm32g4xx_ll_usb.c ****           pmabuffer = ep->pmaaddr1;
 2516              		.loc 1 544 11 view .LVU841
 2517 006a 002B     		cmp	r3, #0
 2518 006c 40F0E381 		bne	.L129
 544:Drivers/STM32G4xx_HAL_Driver/Src/stm32g4xx_ll_usb.c ****           pmabuffer = ep->pmaaddr1;
 2519              		.loc 1 544 11 discriminator 1 view .LVU842
 2520              	.LBB80:
 544:Drivers/STM32G4xx_HAL_Driver/Src/stm32g4xx_ll_usb.c ****           pmabuffer = ep->pmaaddr1;
 2521              		.loc 1 544 11 discriminator 1 view .LVU843
 2522              	.LVL257:
 544:Drivers/STM32G4xx_HAL_Driver/Src/stm32g4xx_ll_usb.c ****           pmabuffer = ep->pmaaddr1;
 2523              		.loc 1 544 11 discriminator 1 view .LVU844
 544:Drivers/STM32G4xx_HAL_Driver/Src/stm32g4xx_ll_usb.c ****           pmabuffer = ep->pmaaddr1;
 2524              		.loc 1 544 11 discriminator 1 view .LVU845
 2525 0070 B5F85030 		ldrh	r3, [r5, #80]
 2526 0074 15FA83F3 		uxtah	r3, r5, r3
 2527              	.LVL258:
 544:Drivers/STM32G4xx_HAL_Driver/Src/stm32g4xx_ll_usb.c ****           pmabuffer = ep->pmaaddr1;
 2528              		.loc 1 544 11 discriminator 1 view .LVU846
 2529 0078 03EBC202 		add	r2, r3, r2, lsl #3
ARM GAS  /tmp/cc98KGWN.s 			page 65


 2530              	.LVL259:
 544:Drivers/STM32G4xx_HAL_Driver/Src/stm32g4xx_ll_usb.c ****           pmabuffer = ep->pmaaddr1;
 2531              		.loc 1 544 11 discriminator 1 view .LVU847
 2532              	.LBB81:
 544:Drivers/STM32G4xx_HAL_Driver/Src/stm32g4xx_ll_usb.c ****           pmabuffer = ep->pmaaddr1;
 2533              		.loc 1 544 11 discriminator 1 view .LVU848
 544:Drivers/STM32G4xx_HAL_Driver/Src/stm32g4xx_ll_usb.c ****           pmabuffer = ep->pmaaddr1;
 2534              		.loc 1 544 11 discriminator 1 view .LVU849
 2535 007c B2F80634 		ldrh	r3, [r2, #1030]
 2536              	.LVL260:
 544:Drivers/STM32G4xx_HAL_Driver/Src/stm32g4xx_ll_usb.c ****           pmabuffer = ep->pmaaddr1;
 2537              		.loc 1 544 11 is_stmt 0 discriminator 1 view .LVU850
 2538 0080 C3F30903 		ubfx	r3, r3, #0, #10
 2539 0084 A2F80634 		strh	r3, [r2, #1030]	@ movhi
 544:Drivers/STM32G4xx_HAL_Driver/Src/stm32g4xx_ll_usb.c ****           pmabuffer = ep->pmaaddr1;
 2540              		.loc 1 544 11 is_stmt 1 discriminator 1 view .LVU851
 2541 0088 002E     		cmp	r6, #0
 2542 008a 40F0B481 		bne	.L130
 544:Drivers/STM32G4xx_HAL_Driver/Src/stm32g4xx_ll_usb.c ****           pmabuffer = ep->pmaaddr1;
 2543              		.loc 1 544 11 discriminator 3 view .LVU852
 2544 008e B2F80634 		ldrh	r3, [r2, #1030]
 2545 0092 6FEA4343 		mvn	r3, r3, lsl #17
 2546 0096 6FEA5343 		mvn	r3, r3, lsr #17
 2547 009a 9BB2     		uxth	r3, r3
 2548 009c A2F80634 		strh	r3, [r2, #1030]	@ movhi
 2549 00a0 D2E1     		b	.L131
 2550              	.LVL261:
 2551              	.L152:
 544:Drivers/STM32G4xx_HAL_Driver/Src/stm32g4xx_ll_usb.c ****           pmabuffer = ep->pmaaddr1;
 2552              		.loc 1 544 11 is_stmt 0 discriminator 3 view .LVU853
 2553              	.LBE81:
 2554              	.LBE80:
 2555              	.LBE79:
 446:Drivers/STM32G4xx_HAL_Driver/Src/stm32g4xx_ll_usb.c ****       PCD_SET_EP_TX_CNT(USBx, ep->num, len);
 2556              		.loc 1 446 7 is_stmt 1 view .LVU854
 2557 00a2 B6B2     		uxth	r6, r6
 2558              	.LVL262:
 446:Drivers/STM32G4xx_HAL_Driver/Src/stm32g4xx_ll_usb.c ****       PCD_SET_EP_TX_CNT(USBx, ep->num, len);
 2559              		.loc 1 446 7 is_stmt 0 view .LVU855
 2560 00a4 3346     		mov	r3, r6
 2561 00a6 E288     		ldrh	r2, [r4, #6]
 2562 00a8 6169     		ldr	r1, [r4, #20]
 2563 00aa 2846     		mov	r0, r5
 2564              	.LVL263:
 446:Drivers/STM32G4xx_HAL_Driver/Src/stm32g4xx_ll_usb.c ****       PCD_SET_EP_TX_CNT(USBx, ep->num, len);
 2565              		.loc 1 446 7 view .LVU856
 2566 00ac FFF7FEFF 		bl	USB_WritePMA
 2567              	.LVL264:
 447:Drivers/STM32G4xx_HAL_Driver/Src/stm32g4xx_ll_usb.c ****     }
 2568              		.loc 1 447 7 is_stmt 1 view .LVU857
 2569              	.LBB84:
 447:Drivers/STM32G4xx_HAL_Driver/Src/stm32g4xx_ll_usb.c ****     }
 2570              		.loc 1 447 7 view .LVU858
 447:Drivers/STM32G4xx_HAL_Driver/Src/stm32g4xx_ll_usb.c ****     }
 2571              		.loc 1 447 7 view .LVU859
 447:Drivers/STM32G4xx_HAL_Driver/Src/stm32g4xx_ll_usb.c ****     }
 2572              		.loc 1 447 7 view .LVU860
ARM GAS  /tmp/cc98KGWN.s 			page 66


 2573 00b0 B5F85030 		ldrh	r3, [r5, #80]
 2574 00b4 15FA83F3 		uxtah	r3, r5, r3
 2575              	.LVL265:
 447:Drivers/STM32G4xx_HAL_Driver/Src/stm32g4xx_ll_usb.c ****     }
 2576              		.loc 1 447 7 view .LVU861
 2577 00b8 2278     		ldrb	r2, [r4]	@ zero_extendqisi2
 2578 00ba 03EBC203 		add	r3, r3, r2, lsl #3
 2579              	.LVL266:
 447:Drivers/STM32G4xx_HAL_Driver/Src/stm32g4xx_ll_usb.c ****     }
 2580              		.loc 1 447 7 view .LVU862
 2581 00be A3F80264 		strh	r6, [r3, #1026]	@ movhi
 2582              	.LBE84:
 447:Drivers/STM32G4xx_HAL_Driver/Src/stm32g4xx_ll_usb.c ****     }
 2583              		.loc 1 447 7 view .LVU863
 2584              	.LVL267:
 2585              	.L96:
 563:Drivers/STM32G4xx_HAL_Driver/Src/stm32g4xx_ll_usb.c ****   }
 2586              		.loc 1 563 5 view .LVU864
 2587              	.LBB85:
 563:Drivers/STM32G4xx_HAL_Driver/Src/stm32g4xx_ll_usb.c ****   }
 2588              		.loc 1 563 5 view .LVU865
 563:Drivers/STM32G4xx_HAL_Driver/Src/stm32g4xx_ll_usb.c ****   }
 2589              		.loc 1 563 5 view .LVU866
 2590 00c2 2278     		ldrb	r2, [r4]	@ zero_extendqisi2
 2591 00c4 35F82230 		ldrh	r3, [r5, r2, lsl #2]
 2592 00c8 9BB2     		uxth	r3, r3
 2593 00ca 23F4E043 		bic	r3, r3, #28672
 2594 00ce 23F04003 		bic	r3, r3, #64
 2595              	.LVL268:
 563:Drivers/STM32G4xx_HAL_Driver/Src/stm32g4xx_ll_usb.c ****   }
 2596              		.loc 1 563 5 view .LVU867
 563:Drivers/STM32G4xx_HAL_Driver/Src/stm32g4xx_ll_usb.c ****   }
 2597              		.loc 1 563 5 view .LVU868
 563:Drivers/STM32G4xx_HAL_Driver/Src/stm32g4xx_ll_usb.c ****   }
 2598              		.loc 1 563 5 view .LVU869
 563:Drivers/STM32G4xx_HAL_Driver/Src/stm32g4xx_ll_usb.c ****   }
 2599              		.loc 1 563 5 view .LVU870
 2600 00d2 83F03003 		eor	r3, r3, #48
 2601              	.LVL269:
 563:Drivers/STM32G4xx_HAL_Driver/Src/stm32g4xx_ll_usb.c ****   }
 2602              		.loc 1 563 5 view .LVU871
 2603 00d6 43F40043 		orr	r3, r3, #32768
 2604              	.LVL270:
 563:Drivers/STM32G4xx_HAL_Driver/Src/stm32g4xx_ll_usb.c ****   }
 2605              		.loc 1 563 5 is_stmt 0 view .LVU872
 2606 00da 43F08003 		orr	r3, r3, #128
 2607 00de 25F82230 		strh	r3, [r5, r2, lsl #2]	@ movhi
 2608              	.LBE85:
 563:Drivers/STM32G4xx_HAL_Driver/Src/stm32g4xx_ll_usb.c ****   }
 2609              		.loc 1 563 5 is_stmt 1 view .LVU873
 626:Drivers/STM32G4xx_HAL_Driver/Src/stm32g4xx_ll_usb.c **** }
 2610              		.loc 1 626 10 is_stmt 0 view .LVU874
 2611 00e2 0020     		movs	r0, #0
 2612 00e4 24E2     		b	.L141
 2613              	.LVL271:
 2614              	.L153:
 455:Drivers/STM32G4xx_HAL_Driver/Src/stm32g4xx_ll_usb.c ****         {
ARM GAS  /tmp/cc98KGWN.s 			page 67


 2615              		.loc 1 455 9 is_stmt 1 view .LVU875
 455:Drivers/STM32G4xx_HAL_Driver/Src/stm32g4xx_ll_usb.c ****         {
 2616              		.loc 1 455 15 is_stmt 0 view .LVU876
 2617 00e6 236A     		ldr	r3, [r4, #32]
 455:Drivers/STM32G4xx_HAL_Driver/Src/stm32g4xx_ll_usb.c ****         {
 2618              		.loc 1 455 12 view .LVU877
 2619 00e8 9A42     		cmp	r2, r3
 2620 00ea 80F06681 		bcs	.L98
 458:Drivers/STM32G4xx_HAL_Driver/Src/stm32g4xx_ll_usb.c **** 
 2621              		.loc 1 458 11 is_stmt 1 view .LVU878
 2622              	.LBB86:
 458:Drivers/STM32G4xx_HAL_Driver/Src/stm32g4xx_ll_usb.c **** 
 2623              		.loc 1 458 11 view .LVU879
 458:Drivers/STM32G4xx_HAL_Driver/Src/stm32g4xx_ll_usb.c **** 
 2624              		.loc 1 458 11 view .LVU880
 2625 00ee 2278     		ldrb	r2, [r4]	@ zero_extendqisi2
 2626 00f0 35F82230 		ldrh	r3, [r5, r2, lsl #2]
 2627 00f4 9BB2     		uxth	r3, r3
 2628 00f6 23F4E043 		bic	r3, r3, #28672
 2629 00fa 23F07003 		bic	r3, r3, #112
 2630              	.LVL272:
 458:Drivers/STM32G4xx_HAL_Driver/Src/stm32g4xx_ll_usb.c **** 
 2631              		.loc 1 458 11 view .LVU881
 2632 00fe 43F40143 		orr	r3, r3, #33024
 2633              	.LVL273:
 458:Drivers/STM32G4xx_HAL_Driver/Src/stm32g4xx_ll_usb.c **** 
 2634              		.loc 1 458 11 is_stmt 0 view .LVU882
 2635 0102 43F08003 		orr	r3, r3, #128
 2636 0106 25F82230 		strh	r3, [r5, r2, lsl #2]	@ movhi
 2637              	.LBE86:
 458:Drivers/STM32G4xx_HAL_Driver/Src/stm32g4xx_ll_usb.c **** 
 2638              		.loc 1 458 11 is_stmt 1 view .LVU883
 461:Drivers/STM32G4xx_HAL_Driver/Src/stm32g4xx_ll_usb.c **** 
 2639              		.loc 1 461 11 view .LVU884
 461:Drivers/STM32G4xx_HAL_Driver/Src/stm32g4xx_ll_usb.c **** 
 2640              		.loc 1 461 27 is_stmt 0 view .LVU885
 2641 010a 236A     		ldr	r3, [r4, #32]
 2642 010c 9B1B     		subs	r3, r3, r6
 2643 010e 2362     		str	r3, [r4, #32]
 464:Drivers/STM32G4xx_HAL_Driver/Src/stm32g4xx_ll_usb.c ****           {
 2644              		.loc 1 464 11 is_stmt 1 view .LVU886
 464:Drivers/STM32G4xx_HAL_Driver/Src/stm32g4xx_ll_usb.c ****           {
 2645              		.loc 1 464 16 is_stmt 0 view .LVU887
 2646 0110 2378     		ldrb	r3, [r4]	@ zero_extendqisi2
 2647 0112 35F82320 		ldrh	r2, [r5, r3, lsl #2]
 464:Drivers/STM32G4xx_HAL_Driver/Src/stm32g4xx_ll_usb.c ****           {
 2648              		.loc 1 464 14 view .LVU888
 2649 0116 12F0400F 		tst	r2, #64
 2650 011a 00F0A780 		beq	.L99
 467:Drivers/STM32G4xx_HAL_Driver/Src/stm32g4xx_ll_usb.c ****             pmabuffer = ep->pmaaddr1;
 2651              		.loc 1 467 13 is_stmt 1 view .LVU889
 2652              	.LBB87:
 467:Drivers/STM32G4xx_HAL_Driver/Src/stm32g4xx_ll_usb.c ****             pmabuffer = ep->pmaaddr1;
 2653              		.loc 1 467 13 view .LVU890
 2654              	.LVL274:
 467:Drivers/STM32G4xx_HAL_Driver/Src/stm32g4xx_ll_usb.c ****             pmabuffer = ep->pmaaddr1;
 2655              		.loc 1 467 13 view .LVU891
ARM GAS  /tmp/cc98KGWN.s 			page 68


 467:Drivers/STM32G4xx_HAL_Driver/Src/stm32g4xx_ll_usb.c ****             pmabuffer = ep->pmaaddr1;
 2656              		.loc 1 467 13 view .LVU892
 2657 011e 6278     		ldrb	r2, [r4, #1]	@ zero_extendqisi2
 2658 0120 B2BB     		cbnz	r2, .L100
 467:Drivers/STM32G4xx_HAL_Driver/Src/stm32g4xx_ll_usb.c ****             pmabuffer = ep->pmaaddr1;
 2659              		.loc 1 467 13 discriminator 1 view .LVU893
 2660              	.LBB88:
 467:Drivers/STM32G4xx_HAL_Driver/Src/stm32g4xx_ll_usb.c ****             pmabuffer = ep->pmaaddr1;
 2661              		.loc 1 467 13 discriminator 1 view .LVU894
 2662              	.LVL275:
 467:Drivers/STM32G4xx_HAL_Driver/Src/stm32g4xx_ll_usb.c ****             pmabuffer = ep->pmaaddr1;
 2663              		.loc 1 467 13 discriminator 1 view .LVU895
 467:Drivers/STM32G4xx_HAL_Driver/Src/stm32g4xx_ll_usb.c ****             pmabuffer = ep->pmaaddr1;
 2664              		.loc 1 467 13 discriminator 1 view .LVU896
 2665 0122 B5F85020 		ldrh	r2, [r5, #80]
 2666 0126 15FA82F2 		uxtah	r2, r5, r2
 2667              	.LVL276:
 467:Drivers/STM32G4xx_HAL_Driver/Src/stm32g4xx_ll_usb.c ****             pmabuffer = ep->pmaaddr1;
 2668              		.loc 1 467 13 discriminator 1 view .LVU897
 2669 012a 02EBC303 		add	r3, r2, r3, lsl #3
 2670              	.LVL277:
 467:Drivers/STM32G4xx_HAL_Driver/Src/stm32g4xx_ll_usb.c ****             pmabuffer = ep->pmaaddr1;
 2671              		.loc 1 467 13 discriminator 1 view .LVU898
 2672              	.LBB89:
 467:Drivers/STM32G4xx_HAL_Driver/Src/stm32g4xx_ll_usb.c ****             pmabuffer = ep->pmaaddr1;
 2673              		.loc 1 467 13 discriminator 1 view .LVU899
 467:Drivers/STM32G4xx_HAL_Driver/Src/stm32g4xx_ll_usb.c ****             pmabuffer = ep->pmaaddr1;
 2674              		.loc 1 467 13 discriminator 1 view .LVU900
 2675 012e B3F80624 		ldrh	r2, [r3, #1030]
 2676              	.LVL278:
 467:Drivers/STM32G4xx_HAL_Driver/Src/stm32g4xx_ll_usb.c ****             pmabuffer = ep->pmaaddr1;
 2677              		.loc 1 467 13 is_stmt 0 discriminator 1 view .LVU901
 2678 0132 C2F30902 		ubfx	r2, r2, #0, #10
 2679 0136 A3F80624 		strh	r2, [r3, #1030]	@ movhi
 467:Drivers/STM32G4xx_HAL_Driver/Src/stm32g4xx_ll_usb.c ****             pmabuffer = ep->pmaaddr1;
 2680              		.loc 1 467 13 is_stmt 1 discriminator 1 view .LVU902
 2681 013a 4EB9     		cbnz	r6, .L101
 467:Drivers/STM32G4xx_HAL_Driver/Src/stm32g4xx_ll_usb.c ****             pmabuffer = ep->pmaaddr1;
 2682              		.loc 1 467 13 discriminator 3 view .LVU903
 2683 013c B3F80624 		ldrh	r2, [r3, #1030]
 2684 0140 6FEA4242 		mvn	r2, r2, lsl #17
 2685 0144 6FEA5242 		mvn	r2, r2, lsr #17
 2686 0148 92B2     		uxth	r2, r2
 2687 014a A3F80624 		strh	r2, [r3, #1030]	@ movhi
 2688 014e 21E0     		b	.L102
 2689              	.L101:
 467:Drivers/STM32G4xx_HAL_Driver/Src/stm32g4xx_ll_usb.c ****             pmabuffer = ep->pmaaddr1;
 2690              		.loc 1 467 13 discriminator 4 view .LVU904
 2691 0150 3E2E     		cmp	r6, #62
 2692 0152 0DD8     		bhi	.L103
 467:Drivers/STM32G4xx_HAL_Driver/Src/stm32g4xx_ll_usb.c ****             pmabuffer = ep->pmaaddr1;
 2693              		.loc 1 467 13 discriminator 6 view .LVU905
 467:Drivers/STM32G4xx_HAL_Driver/Src/stm32g4xx_ll_usb.c ****             pmabuffer = ep->pmaaddr1;
 2694              		.loc 1 467 13 discriminator 6 view .LVU906
 2695 0154 7208     		lsrs	r2, r6, #1
 2696              	.LVL279:
 467:Drivers/STM32G4xx_HAL_Driver/Src/stm32g4xx_ll_usb.c ****             pmabuffer = ep->pmaaddr1;
ARM GAS  /tmp/cc98KGWN.s 			page 69


 2697              		.loc 1 467 13 discriminator 6 view .LVU907
 2698 0156 16F0010F 		tst	r6, #1
 2699 015a 00D0     		beq	.L104
 467:Drivers/STM32G4xx_HAL_Driver/Src/stm32g4xx_ll_usb.c ****             pmabuffer = ep->pmaaddr1;
 2700              		.loc 1 467 13 discriminator 8 view .LVU908
 2701 015c 0132     		adds	r2, r2, #1
 2702              	.LVL280:
 2703              	.L104:
 467:Drivers/STM32G4xx_HAL_Driver/Src/stm32g4xx_ll_usb.c ****             pmabuffer = ep->pmaaddr1;
 2704              		.loc 1 467 13 discriminator 10 view .LVU909
 2705 015e B3F80614 		ldrh	r1, [r3, #1030]
 2706 0162 89B2     		uxth	r1, r1
 2707 0164 9202     		lsls	r2, r2, #10
 2708              	.LVL281:
 467:Drivers/STM32G4xx_HAL_Driver/Src/stm32g4xx_ll_usb.c ****             pmabuffer = ep->pmaaddr1;
 2709              		.loc 1 467 13 is_stmt 0 discriminator 10 view .LVU910
 2710 0166 92B2     		uxth	r2, r2
 2711 0168 0A43     		orrs	r2, r2, r1
 2712 016a A3F80624 		strh	r2, [r3, #1030]	@ movhi
 467:Drivers/STM32G4xx_HAL_Driver/Src/stm32g4xx_ll_usb.c ****             pmabuffer = ep->pmaaddr1;
 2713              		.loc 1 467 13 is_stmt 1 discriminator 10 view .LVU911
 2714 016e 11E0     		b	.L102
 2715              	.L103:
 467:Drivers/STM32G4xx_HAL_Driver/Src/stm32g4xx_ll_usb.c ****             pmabuffer = ep->pmaaddr1;
 2716              		.loc 1 467 13 discriminator 7 view .LVU912
 467:Drivers/STM32G4xx_HAL_Driver/Src/stm32g4xx_ll_usb.c ****             pmabuffer = ep->pmaaddr1;
 2717              		.loc 1 467 13 discriminator 7 view .LVU913
 2718 0170 7109     		lsrs	r1, r6, #5
 2719              	.LVL282:
 467:Drivers/STM32G4xx_HAL_Driver/Src/stm32g4xx_ll_usb.c ****             pmabuffer = ep->pmaaddr1;
 2720              		.loc 1 467 13 discriminator 7 view .LVU914
 2721 0172 16F01F0F 		tst	r6, #31
 2722 0176 00D1     		bne	.L105
 467:Drivers/STM32G4xx_HAL_Driver/Src/stm32g4xx_ll_usb.c ****             pmabuffer = ep->pmaaddr1;
 2723              		.loc 1 467 13 discriminator 12 view .LVU915
 2724 0178 0139     		subs	r1, r1, #1
 2725              	.LVL283:
 2726              	.L105:
 467:Drivers/STM32G4xx_HAL_Driver/Src/stm32g4xx_ll_usb.c ****             pmabuffer = ep->pmaaddr1;
 2727              		.loc 1 467 13 discriminator 14 view .LVU916
 2728 017a B3F80624 		ldrh	r2, [r3, #1030]
 2729 017e 92B2     		uxth	r2, r2
 2730 0180 8902     		lsls	r1, r1, #10
 2731              	.LVL284:
 467:Drivers/STM32G4xx_HAL_Driver/Src/stm32g4xx_ll_usb.c ****             pmabuffer = ep->pmaaddr1;
 2732              		.loc 1 467 13 is_stmt 0 discriminator 14 view .LVU917
 2733 0182 89B2     		uxth	r1, r1
 2734 0184 0A43     		orrs	r2, r2, r1
 2735 0186 42F40042 		orr	r2, r2, #32768
 2736 018a A3F80624 		strh	r2, [r3, #1030]	@ movhi
 2737 018e 01E0     		b	.L102
 2738              	.LVL285:
 2739              	.L100:
 467:Drivers/STM32G4xx_HAL_Driver/Src/stm32g4xx_ll_usb.c ****             pmabuffer = ep->pmaaddr1;
 2740              		.loc 1 467 13 discriminator 14 view .LVU918
 2741              	.LBE89:
 2742              	.LBE88:
ARM GAS  /tmp/cc98KGWN.s 			page 70


 467:Drivers/STM32G4xx_HAL_Driver/Src/stm32g4xx_ll_usb.c ****             pmabuffer = ep->pmaaddr1;
 2743              		.loc 1 467 13 is_stmt 1 discriminator 2 view .LVU919
 2744 0190 012A     		cmp	r2, #1
 2745 0192 29D0     		beq	.L154
 2746              	.LVL286:
 2747              	.L102:
 467:Drivers/STM32G4xx_HAL_Driver/Src/stm32g4xx_ll_usb.c ****             pmabuffer = ep->pmaaddr1;
 2748              		.loc 1 467 13 is_stmt 0 discriminator 2 view .LVU920
 2749              	.LBE87:
 467:Drivers/STM32G4xx_HAL_Driver/Src/stm32g4xx_ll_usb.c ****             pmabuffer = ep->pmaaddr1;
 2750              		.loc 1 467 13 is_stmt 1 discriminator 18 view .LVU921
 468:Drivers/STM32G4xx_HAL_Driver/Src/stm32g4xx_ll_usb.c **** 
 2751              		.loc 1 468 13 discriminator 18 view .LVU922
 471:Drivers/STM32G4xx_HAL_Driver/Src/stm32g4xx_ll_usb.c ****             ep->xfer_buff += len;
 2752              		.loc 1 471 13 discriminator 18 view .LVU923
 2753 0194 B3B2     		uxth	r3, r6
 2754 0196 6289     		ldrh	r2, [r4, #10]
 2755 0198 6169     		ldr	r1, [r4, #20]
 2756 019a 2846     		mov	r0, r5
 2757              	.LVL287:
 471:Drivers/STM32G4xx_HAL_Driver/Src/stm32g4xx_ll_usb.c ****             ep->xfer_buff += len;
 2758              		.loc 1 471 13 is_stmt 0 discriminator 18 view .LVU924
 2759 019c FFF7FEFF 		bl	USB_WritePMA
 2760              	.LVL288:
 472:Drivers/STM32G4xx_HAL_Driver/Src/stm32g4xx_ll_usb.c **** 
 2761              		.loc 1 472 13 is_stmt 1 discriminator 18 view .LVU925
 472:Drivers/STM32G4xx_HAL_Driver/Src/stm32g4xx_ll_usb.c **** 
 2762              		.loc 1 472 27 is_stmt 0 discriminator 18 view .LVU926
 2763 01a0 6369     		ldr	r3, [r4, #20]
 2764 01a2 3344     		add	r3, r3, r6
 2765 01a4 6361     		str	r3, [r4, #20]
 474:Drivers/STM32G4xx_HAL_Driver/Src/stm32g4xx_ll_usb.c ****             {
 2766              		.loc 1 474 13 is_stmt 1 discriminator 18 view .LVU927
 474:Drivers/STM32G4xx_HAL_Driver/Src/stm32g4xx_ll_usb.c ****             {
 2767              		.loc 1 474 19 is_stmt 0 discriminator 18 view .LVU928
 2768 01a6 236A     		ldr	r3, [r4, #32]
 474:Drivers/STM32G4xx_HAL_Driver/Src/stm32g4xx_ll_usb.c ****             {
 2769              		.loc 1 474 37 discriminator 18 view .LVU929
 2770 01a8 2269     		ldr	r2, [r4, #16]
 474:Drivers/STM32G4xx_HAL_Driver/Src/stm32g4xx_ll_usb.c ****             {
 2771              		.loc 1 474 16 discriminator 18 view .LVU930
 2772 01aa 9342     		cmp	r3, r2
 2773 01ac 26D9     		bls	.L106
 476:Drivers/STM32G4xx_HAL_Driver/Src/stm32g4xx_ll_usb.c ****             }
 2774              		.loc 1 476 15 is_stmt 1 view .LVU931
 476:Drivers/STM32G4xx_HAL_Driver/Src/stm32g4xx_ll_usb.c ****             }
 2775              		.loc 1 476 31 is_stmt 0 view .LVU932
 2776 01ae 9B1B     		subs	r3, r3, r6
 2777 01b0 2362     		str	r3, [r4, #32]
 2778              	.L107:
 485:Drivers/STM32G4xx_HAL_Driver/Src/stm32g4xx_ll_usb.c ****             pmabuffer = ep->pmaaddr0;
 2779              		.loc 1 485 13 is_stmt 1 view .LVU933
 485:Drivers/STM32G4xx_HAL_Driver/Src/stm32g4xx_ll_usb.c ****             pmabuffer = ep->pmaaddr0;
 2780              		.loc 1 485 13 view .LVU934
 2781 01b2 6378     		ldrb	r3, [r4, #1]	@ zero_extendqisi2
 2782 01b4 002B     		cmp	r3, #0
 2783 01b6 45D1     		bne	.L108
ARM GAS  /tmp/cc98KGWN.s 			page 71


 485:Drivers/STM32G4xx_HAL_Driver/Src/stm32g4xx_ll_usb.c ****             pmabuffer = ep->pmaaddr0;
 2784              		.loc 1 485 13 discriminator 1 view .LVU935
 2785              	.LBB90:
 485:Drivers/STM32G4xx_HAL_Driver/Src/stm32g4xx_ll_usb.c ****             pmabuffer = ep->pmaaddr0;
 2786              		.loc 1 485 13 discriminator 1 view .LVU936
 2787              	.LVL289:
 485:Drivers/STM32G4xx_HAL_Driver/Src/stm32g4xx_ll_usb.c ****             pmabuffer = ep->pmaaddr0;
 2788              		.loc 1 485 13 discriminator 1 view .LVU937
 485:Drivers/STM32G4xx_HAL_Driver/Src/stm32g4xx_ll_usb.c ****             pmabuffer = ep->pmaaddr0;
 2789              		.loc 1 485 13 discriminator 1 view .LVU938
 2790 01b8 B5F85030 		ldrh	r3, [r5, #80]
 2791 01bc 15FA83F3 		uxtah	r3, r5, r3
 2792              	.LVL290:
 485:Drivers/STM32G4xx_HAL_Driver/Src/stm32g4xx_ll_usb.c ****             pmabuffer = ep->pmaaddr0;
 2793              		.loc 1 485 13 discriminator 1 view .LVU939
 2794 01c0 2278     		ldrb	r2, [r4]	@ zero_extendqisi2
 2795 01c2 03EBC203 		add	r3, r3, r2, lsl #3
 2796              	.LVL291:
 485:Drivers/STM32G4xx_HAL_Driver/Src/stm32g4xx_ll_usb.c ****             pmabuffer = ep->pmaaddr0;
 2797              		.loc 1 485 13 discriminator 1 view .LVU940
 2798              	.LBB91:
 485:Drivers/STM32G4xx_HAL_Driver/Src/stm32g4xx_ll_usb.c ****             pmabuffer = ep->pmaaddr0;
 2799              		.loc 1 485 13 discriminator 1 view .LVU941
 485:Drivers/STM32G4xx_HAL_Driver/Src/stm32g4xx_ll_usb.c ****             pmabuffer = ep->pmaaddr0;
 2800              		.loc 1 485 13 discriminator 1 view .LVU942
 2801 01c6 B3F80224 		ldrh	r2, [r3, #1026]
 2802 01ca C2F30902 		ubfx	r2, r2, #0, #10
 2803 01ce A3F80224 		strh	r2, [r3, #1026]	@ movhi
 485:Drivers/STM32G4xx_HAL_Driver/Src/stm32g4xx_ll_usb.c ****             pmabuffer = ep->pmaaddr0;
 2804              		.loc 1 485 13 discriminator 1 view .LVU943
 2805 01d2 BEB9     		cbnz	r6, .L109
 485:Drivers/STM32G4xx_HAL_Driver/Src/stm32g4xx_ll_usb.c ****             pmabuffer = ep->pmaaddr0;
 2806              		.loc 1 485 13 discriminator 3 view .LVU944
 2807 01d4 B3F80224 		ldrh	r2, [r3, #1026]
 2808 01d8 6FEA4242 		mvn	r2, r2, lsl #17
 2809 01dc 6FEA5242 		mvn	r2, r2, lsr #17
 2810 01e0 92B2     		uxth	r2, r2
 2811 01e2 A3F80224 		strh	r2, [r3, #1026]	@ movhi
 2812 01e6 2FE0     		b	.L110
 2813              	.LVL292:
 2814              	.L154:
 485:Drivers/STM32G4xx_HAL_Driver/Src/stm32g4xx_ll_usb.c ****             pmabuffer = ep->pmaaddr0;
 2815              		.loc 1 485 13 is_stmt 0 discriminator 3 view .LVU945
 2816              	.LBE91:
 2817              	.LBE90:
 2818              	.LBB93:
 467:Drivers/STM32G4xx_HAL_Driver/Src/stm32g4xx_ll_usb.c ****             pmabuffer = ep->pmaaddr1;
 2819              		.loc 1 467 13 is_stmt 1 discriminator 16 view .LVU946
 2820 01e8 B5F85020 		ldrh	r2, [r5, #80]
 2821 01ec 15FA82F2 		uxtah	r2, r5, r2
 2822              	.LVL293:
 467:Drivers/STM32G4xx_HAL_Driver/Src/stm32g4xx_ll_usb.c ****             pmabuffer = ep->pmaaddr1;
 2823              		.loc 1 467 13 discriminator 16 view .LVU947
 2824 01f0 02EBC303 		add	r3, r2, r3, lsl #3
 2825              	.LVL294:
 467:Drivers/STM32G4xx_HAL_Driver/Src/stm32g4xx_ll_usb.c ****             pmabuffer = ep->pmaaddr1;
 2826              		.loc 1 467 13 discriminator 16 view .LVU948
ARM GAS  /tmp/cc98KGWN.s 			page 72


 2827 01f4 B2B2     		uxth	r2, r6
 2828              	.LVL295:
 467:Drivers/STM32G4xx_HAL_Driver/Src/stm32g4xx_ll_usb.c ****             pmabuffer = ep->pmaaddr1;
 2829              		.loc 1 467 13 is_stmt 0 discriminator 16 view .LVU949
 2830 01f6 A3F80624 		strh	r2, [r3, #1030]	@ movhi
 2831 01fa CBE7     		b	.L102
 2832              	.LVL296:
 2833              	.L106:
 467:Drivers/STM32G4xx_HAL_Driver/Src/stm32g4xx_ll_usb.c ****             pmabuffer = ep->pmaaddr1;
 2834              		.loc 1 467 13 discriminator 16 view .LVU950
 2835              	.LBE93:
 480:Drivers/STM32G4xx_HAL_Driver/Src/stm32g4xx_ll_usb.c ****               ep->xfer_len_db = 0U;
 2836              		.loc 1 480 15 is_stmt 1 view .LVU951
 481:Drivers/STM32G4xx_HAL_Driver/Src/stm32g4xx_ll_usb.c ****             }
 2837              		.loc 1 481 15 view .LVU952
 481:Drivers/STM32G4xx_HAL_Driver/Src/stm32g4xx_ll_usb.c ****             }
 2838              		.loc 1 481 31 is_stmt 0 view .LVU953
 2839 01fc 0022     		movs	r2, #0
 2840 01fe 2262     		str	r2, [r4, #32]
 480:Drivers/STM32G4xx_HAL_Driver/Src/stm32g4xx_ll_usb.c ****               ep->xfer_len_db = 0U;
 2841              		.loc 1 480 19 view .LVU954
 2842 0200 1E46     		mov	r6, r3
 2843 0202 D6E7     		b	.L107
 2844              	.LVL297:
 2845              	.L109:
 2846              	.LBB94:
 2847              	.LBB92:
 485:Drivers/STM32G4xx_HAL_Driver/Src/stm32g4xx_ll_usb.c ****             pmabuffer = ep->pmaaddr0;
 2848              		.loc 1 485 13 is_stmt 1 discriminator 4 view .LVU955
 2849 0204 3E2E     		cmp	r6, #62
 2850 0206 0DD8     		bhi	.L111
 485:Drivers/STM32G4xx_HAL_Driver/Src/stm32g4xx_ll_usb.c ****             pmabuffer = ep->pmaaddr0;
 2851              		.loc 1 485 13 discriminator 6 view .LVU956
 485:Drivers/STM32G4xx_HAL_Driver/Src/stm32g4xx_ll_usb.c ****             pmabuffer = ep->pmaaddr0;
 2852              		.loc 1 485 13 discriminator 6 view .LVU957
 2853 0208 7208     		lsrs	r2, r6, #1
 2854              	.LVL298:
 485:Drivers/STM32G4xx_HAL_Driver/Src/stm32g4xx_ll_usb.c ****             pmabuffer = ep->pmaaddr0;
 2855              		.loc 1 485 13 discriminator 6 view .LVU958
 2856 020a 16F0010F 		tst	r6, #1
 2857 020e 00D0     		beq	.L112
 485:Drivers/STM32G4xx_HAL_Driver/Src/stm32g4xx_ll_usb.c ****             pmabuffer = ep->pmaaddr0;
 2858              		.loc 1 485 13 discriminator 8 view .LVU959
 2859 0210 0132     		adds	r2, r2, #1
 2860              	.LVL299:
 2861              	.L112:
 485:Drivers/STM32G4xx_HAL_Driver/Src/stm32g4xx_ll_usb.c ****             pmabuffer = ep->pmaaddr0;
 2862              		.loc 1 485 13 discriminator 10 view .LVU960
 2863 0212 B3F80214 		ldrh	r1, [r3, #1026]
 2864 0216 89B2     		uxth	r1, r1
 2865 0218 9202     		lsls	r2, r2, #10
 2866              	.LVL300:
 485:Drivers/STM32G4xx_HAL_Driver/Src/stm32g4xx_ll_usb.c ****             pmabuffer = ep->pmaaddr0;
 2867              		.loc 1 485 13 is_stmt 0 discriminator 10 view .LVU961
 2868 021a 92B2     		uxth	r2, r2
 2869 021c 0A43     		orrs	r2, r2, r1
 2870 021e A3F80224 		strh	r2, [r3, #1026]	@ movhi
ARM GAS  /tmp/cc98KGWN.s 			page 73


 485:Drivers/STM32G4xx_HAL_Driver/Src/stm32g4xx_ll_usb.c ****             pmabuffer = ep->pmaaddr0;
 2871              		.loc 1 485 13 is_stmt 1 discriminator 10 view .LVU962
 2872 0222 11E0     		b	.L110
 2873              	.L111:
 485:Drivers/STM32G4xx_HAL_Driver/Src/stm32g4xx_ll_usb.c ****             pmabuffer = ep->pmaaddr0;
 2874              		.loc 1 485 13 discriminator 7 view .LVU963
 485:Drivers/STM32G4xx_HAL_Driver/Src/stm32g4xx_ll_usb.c ****             pmabuffer = ep->pmaaddr0;
 2875              		.loc 1 485 13 discriminator 7 view .LVU964
 2876 0224 7109     		lsrs	r1, r6, #5
 2877              	.LVL301:
 485:Drivers/STM32G4xx_HAL_Driver/Src/stm32g4xx_ll_usb.c ****             pmabuffer = ep->pmaaddr0;
 2878              		.loc 1 485 13 discriminator 7 view .LVU965
 2879 0226 16F01F0F 		tst	r6, #31
 2880 022a 00D1     		bne	.L113
 485:Drivers/STM32G4xx_HAL_Driver/Src/stm32g4xx_ll_usb.c ****             pmabuffer = ep->pmaaddr0;
 2881              		.loc 1 485 13 discriminator 12 view .LVU966
 2882 022c 0139     		subs	r1, r1, #1
 2883              	.LVL302:
 2884              	.L113:
 485:Drivers/STM32G4xx_HAL_Driver/Src/stm32g4xx_ll_usb.c ****             pmabuffer = ep->pmaaddr0;
 2885              		.loc 1 485 13 discriminator 14 view .LVU967
 2886 022e B3F80224 		ldrh	r2, [r3, #1026]
 2887 0232 92B2     		uxth	r2, r2
 2888 0234 8902     		lsls	r1, r1, #10
 2889              	.LVL303:
 485:Drivers/STM32G4xx_HAL_Driver/Src/stm32g4xx_ll_usb.c ****             pmabuffer = ep->pmaaddr0;
 2890              		.loc 1 485 13 is_stmt 0 discriminator 14 view .LVU968
 2891 0236 89B2     		uxth	r1, r1
 2892 0238 0A43     		orrs	r2, r2, r1
 2893 023a 42F40042 		orr	r2, r2, #32768
 2894 023e A3F80224 		strh	r2, [r3, #1026]	@ movhi
 2895 0242 01E0     		b	.L110
 2896              	.LVL304:
 2897              	.L108:
 485:Drivers/STM32G4xx_HAL_Driver/Src/stm32g4xx_ll_usb.c ****             pmabuffer = ep->pmaaddr0;
 2898              		.loc 1 485 13 discriminator 14 view .LVU969
 2899              	.LBE92:
 2900              	.LBE94:
 485:Drivers/STM32G4xx_HAL_Driver/Src/stm32g4xx_ll_usb.c ****             pmabuffer = ep->pmaaddr0;
 2901              		.loc 1 485 13 is_stmt 1 discriminator 2 view .LVU970
 2902 0244 012B     		cmp	r3, #1
 2903 0246 06D0     		beq	.L155
 2904              	.L110:
 485:Drivers/STM32G4xx_HAL_Driver/Src/stm32g4xx_ll_usb.c ****             pmabuffer = ep->pmaaddr0;
 2905              		.loc 1 485 13 discriminator 18 view .LVU971
 485:Drivers/STM32G4xx_HAL_Driver/Src/stm32g4xx_ll_usb.c ****             pmabuffer = ep->pmaaddr0;
 2906              		.loc 1 485 13 discriminator 18 view .LVU972
 486:Drivers/STM32G4xx_HAL_Driver/Src/stm32g4xx_ll_usb.c **** 
 2907              		.loc 1 486 13 discriminator 18 view .LVU973
 2908              	.LVL305:
 489:Drivers/STM32G4xx_HAL_Driver/Src/stm32g4xx_ll_usb.c ****           }
 2909              		.loc 1 489 13 discriminator 18 view .LVU974
 2910 0248 B3B2     		uxth	r3, r6
 2911 024a 2289     		ldrh	r2, [r4, #8]
 2912 024c 6169     		ldr	r1, [r4, #20]
 2913 024e 2846     		mov	r0, r5
 2914 0250 FFF7FEFF 		bl	USB_WritePMA
ARM GAS  /tmp/cc98KGWN.s 			page 74


 2915              	.LVL306:
 489:Drivers/STM32G4xx_HAL_Driver/Src/stm32g4xx_ll_usb.c ****           }
 2916              		.loc 1 489 13 is_stmt 0 discriminator 18 view .LVU975
 2917 0254 35E7     		b	.L96
 2918              	.L155:
 485:Drivers/STM32G4xx_HAL_Driver/Src/stm32g4xx_ll_usb.c ****             pmabuffer = ep->pmaaddr0;
 2919              		.loc 1 485 13 is_stmt 1 discriminator 16 view .LVU976
 2920              	.LBB95:
 485:Drivers/STM32G4xx_HAL_Driver/Src/stm32g4xx_ll_usb.c ****             pmabuffer = ep->pmaaddr0;
 2921              		.loc 1 485 13 discriminator 16 view .LVU977
 2922              	.LVL307:
 485:Drivers/STM32G4xx_HAL_Driver/Src/stm32g4xx_ll_usb.c ****             pmabuffer = ep->pmaaddr0;
 2923              		.loc 1 485 13 discriminator 16 view .LVU978
 485:Drivers/STM32G4xx_HAL_Driver/Src/stm32g4xx_ll_usb.c ****             pmabuffer = ep->pmaaddr0;
 2924              		.loc 1 485 13 discriminator 16 view .LVU979
 2925 0256 B5F85030 		ldrh	r3, [r5, #80]
 2926 025a 15FA83F3 		uxtah	r3, r5, r3
 2927              	.LVL308:
 485:Drivers/STM32G4xx_HAL_Driver/Src/stm32g4xx_ll_usb.c ****             pmabuffer = ep->pmaaddr0;
 2928              		.loc 1 485 13 discriminator 16 view .LVU980
 2929 025e 2278     		ldrb	r2, [r4]	@ zero_extendqisi2
 2930 0260 03EBC203 		add	r3, r3, r2, lsl #3
 2931              	.LVL309:
 485:Drivers/STM32G4xx_HAL_Driver/Src/stm32g4xx_ll_usb.c ****             pmabuffer = ep->pmaaddr0;
 2932              		.loc 1 485 13 discriminator 16 view .LVU981
 2933 0264 B2B2     		uxth	r2, r6
 2934 0266 A3F80224 		strh	r2, [r3, #1026]	@ movhi
 2935 026a EDE7     		b	.L110
 2936              	.LVL310:
 2937              	.L99:
 485:Drivers/STM32G4xx_HAL_Driver/Src/stm32g4xx_ll_usb.c ****             pmabuffer = ep->pmaaddr0;
 2938              		.loc 1 485 13 is_stmt 0 discriminator 16 view .LVU982
 2939              	.LBE95:
 494:Drivers/STM32G4xx_HAL_Driver/Src/stm32g4xx_ll_usb.c ****             pmabuffer = ep->pmaaddr0;
 2940              		.loc 1 494 13 is_stmt 1 view .LVU983
 494:Drivers/STM32G4xx_HAL_Driver/Src/stm32g4xx_ll_usb.c ****             pmabuffer = ep->pmaaddr0;
 2941              		.loc 1 494 13 view .LVU984
 2942 026c 6278     		ldrb	r2, [r4, #1]	@ zero_extendqisi2
 2943 026e B2BB     		cbnz	r2, .L114
 494:Drivers/STM32G4xx_HAL_Driver/Src/stm32g4xx_ll_usb.c ****             pmabuffer = ep->pmaaddr0;
 2944              		.loc 1 494 13 discriminator 1 view .LVU985
 2945              	.LBB96:
 494:Drivers/STM32G4xx_HAL_Driver/Src/stm32g4xx_ll_usb.c ****             pmabuffer = ep->pmaaddr0;
 2946              		.loc 1 494 13 discriminator 1 view .LVU986
 2947              	.LVL311:
 494:Drivers/STM32G4xx_HAL_Driver/Src/stm32g4xx_ll_usb.c ****             pmabuffer = ep->pmaaddr0;
 2948              		.loc 1 494 13 discriminator 1 view .LVU987
 494:Drivers/STM32G4xx_HAL_Driver/Src/stm32g4xx_ll_usb.c ****             pmabuffer = ep->pmaaddr0;
 2949              		.loc 1 494 13 discriminator 1 view .LVU988
 2950 0270 B5F85020 		ldrh	r2, [r5, #80]
 2951 0274 15FA82F2 		uxtah	r2, r5, r2
 2952              	.LVL312:
 494:Drivers/STM32G4xx_HAL_Driver/Src/stm32g4xx_ll_usb.c ****             pmabuffer = ep->pmaaddr0;
 2953              		.loc 1 494 13 discriminator 1 view .LVU989
 2954 0278 02EBC303 		add	r3, r2, r3, lsl #3
 2955              	.LVL313:
 494:Drivers/STM32G4xx_HAL_Driver/Src/stm32g4xx_ll_usb.c ****             pmabuffer = ep->pmaaddr0;
ARM GAS  /tmp/cc98KGWN.s 			page 75


 2956              		.loc 1 494 13 discriminator 1 view .LVU990
 2957              	.LBB97:
 494:Drivers/STM32G4xx_HAL_Driver/Src/stm32g4xx_ll_usb.c ****             pmabuffer = ep->pmaaddr0;
 2958              		.loc 1 494 13 discriminator 1 view .LVU991
 494:Drivers/STM32G4xx_HAL_Driver/Src/stm32g4xx_ll_usb.c ****             pmabuffer = ep->pmaaddr0;
 2959              		.loc 1 494 13 discriminator 1 view .LVU992
 2960 027c B3F80224 		ldrh	r2, [r3, #1026]
 2961              	.LVL314:
 494:Drivers/STM32G4xx_HAL_Driver/Src/stm32g4xx_ll_usb.c ****             pmabuffer = ep->pmaaddr0;
 2962              		.loc 1 494 13 is_stmt 0 discriminator 1 view .LVU993
 2963 0280 C2F30902 		ubfx	r2, r2, #0, #10
 2964 0284 A3F80224 		strh	r2, [r3, #1026]	@ movhi
 494:Drivers/STM32G4xx_HAL_Driver/Src/stm32g4xx_ll_usb.c ****             pmabuffer = ep->pmaaddr0;
 2965              		.loc 1 494 13 is_stmt 1 discriminator 1 view .LVU994
 2966 0288 4EB9     		cbnz	r6, .L115
 494:Drivers/STM32G4xx_HAL_Driver/Src/stm32g4xx_ll_usb.c ****             pmabuffer = ep->pmaaddr0;
 2967              		.loc 1 494 13 discriminator 3 view .LVU995
 2968 028a B3F80224 		ldrh	r2, [r3, #1026]
 2969 028e 6FEA4242 		mvn	r2, r2, lsl #17
 2970 0292 6FEA5242 		mvn	r2, r2, lsr #17
 2971 0296 92B2     		uxth	r2, r2
 2972 0298 A3F80224 		strh	r2, [r3, #1026]	@ movhi
 2973 029c 21E0     		b	.L116
 2974              	.L115:
 494:Drivers/STM32G4xx_HAL_Driver/Src/stm32g4xx_ll_usb.c ****             pmabuffer = ep->pmaaddr0;
 2975              		.loc 1 494 13 discriminator 4 view .LVU996
 2976 029e 3E2E     		cmp	r6, #62
 2977 02a0 0DD8     		bhi	.L117
 494:Drivers/STM32G4xx_HAL_Driver/Src/stm32g4xx_ll_usb.c ****             pmabuffer = ep->pmaaddr0;
 2978              		.loc 1 494 13 discriminator 6 view .LVU997
 494:Drivers/STM32G4xx_HAL_Driver/Src/stm32g4xx_ll_usb.c ****             pmabuffer = ep->pmaaddr0;
 2979              		.loc 1 494 13 discriminator 6 view .LVU998
 2980 02a2 7208     		lsrs	r2, r6, #1
 2981              	.LVL315:
 494:Drivers/STM32G4xx_HAL_Driver/Src/stm32g4xx_ll_usb.c ****             pmabuffer = ep->pmaaddr0;
 2982              		.loc 1 494 13 discriminator 6 view .LVU999
 2983 02a4 16F0010F 		tst	r6, #1
 2984 02a8 00D0     		beq	.L118
 494:Drivers/STM32G4xx_HAL_Driver/Src/stm32g4xx_ll_usb.c ****             pmabuffer = ep->pmaaddr0;
 2985              		.loc 1 494 13 discriminator 8 view .LVU1000
 2986 02aa 0132     		adds	r2, r2, #1
 2987              	.LVL316:
 2988              	.L118:
 494:Drivers/STM32G4xx_HAL_Driver/Src/stm32g4xx_ll_usb.c ****             pmabuffer = ep->pmaaddr0;
 2989              		.loc 1 494 13 discriminator 10 view .LVU1001
 2990 02ac B3F80214 		ldrh	r1, [r3, #1026]
 2991 02b0 89B2     		uxth	r1, r1
 2992 02b2 9202     		lsls	r2, r2, #10
 2993              	.LVL317:
 494:Drivers/STM32G4xx_HAL_Driver/Src/stm32g4xx_ll_usb.c ****             pmabuffer = ep->pmaaddr0;
 2994              		.loc 1 494 13 is_stmt 0 discriminator 10 view .LVU1002
 2995 02b4 92B2     		uxth	r2, r2
 2996 02b6 0A43     		orrs	r2, r2, r1
 2997 02b8 A3F80224 		strh	r2, [r3, #1026]	@ movhi
 494:Drivers/STM32G4xx_HAL_Driver/Src/stm32g4xx_ll_usb.c ****             pmabuffer = ep->pmaaddr0;
 2998              		.loc 1 494 13 is_stmt 1 discriminator 10 view .LVU1003
 2999 02bc 11E0     		b	.L116
ARM GAS  /tmp/cc98KGWN.s 			page 76


 3000              	.L117:
 494:Drivers/STM32G4xx_HAL_Driver/Src/stm32g4xx_ll_usb.c ****             pmabuffer = ep->pmaaddr0;
 3001              		.loc 1 494 13 discriminator 7 view .LVU1004
 494:Drivers/STM32G4xx_HAL_Driver/Src/stm32g4xx_ll_usb.c ****             pmabuffer = ep->pmaaddr0;
 3002              		.loc 1 494 13 discriminator 7 view .LVU1005
 3003 02be 7109     		lsrs	r1, r6, #5
 3004              	.LVL318:
 494:Drivers/STM32G4xx_HAL_Driver/Src/stm32g4xx_ll_usb.c ****             pmabuffer = ep->pmaaddr0;
 3005              		.loc 1 494 13 discriminator 7 view .LVU1006
 3006 02c0 16F01F0F 		tst	r6, #31
 3007 02c4 00D1     		bne	.L119
 494:Drivers/STM32G4xx_HAL_Driver/Src/stm32g4xx_ll_usb.c ****             pmabuffer = ep->pmaaddr0;
 3008              		.loc 1 494 13 discriminator 12 view .LVU1007
 3009 02c6 0139     		subs	r1, r1, #1
 3010              	.LVL319:
 3011              	.L119:
 494:Drivers/STM32G4xx_HAL_Driver/Src/stm32g4xx_ll_usb.c ****             pmabuffer = ep->pmaaddr0;
 3012              		.loc 1 494 13 discriminator 14 view .LVU1008
 3013 02c8 B3F80224 		ldrh	r2, [r3, #1026]
 3014 02cc 92B2     		uxth	r2, r2
 3015 02ce 8902     		lsls	r1, r1, #10
 3016              	.LVL320:
 494:Drivers/STM32G4xx_HAL_Driver/Src/stm32g4xx_ll_usb.c ****             pmabuffer = ep->pmaaddr0;
 3017              		.loc 1 494 13 is_stmt 0 discriminator 14 view .LVU1009
 3018 02d0 89B2     		uxth	r1, r1
